	.section	__TEXT,__text,regular,pure_instructions
	.build_version macos, 10, 15	sdk_version 10, 15, 4
	.file	1 "/Library/Developer/CommandLineTools/usr/bin/../include/c++/v1" "limits"
	.file	2 "/Library/Developer/CommandLineTools/usr/bin/../include/c++/v1" "ios"
	.file	3 "/Library/Developer/CommandLineTools/usr/lib/clang/11.0.3/include" "stddef.h"
	.file	4 "/Library/Developer/CommandLineTools/SDKs/MacOSX.sdk/usr/include/i386" "_types.h"
	.file	5 "/Library/Developer/CommandLineTools/SDKs/MacOSX.sdk/usr/include/sys/_types" "_size_t.h"
	.file	6 "/Library/Developer/CommandLineTools/usr/bin/../include/c++/v1" "__locale"
	.file	7 "/Library/Developer/CommandLineTools/usr/bin/../include/c++/v1" "string"
	.file	8 "/Library/Developer/CommandLineTools/usr/bin/../include/c++/v1" "memory"
	.file	9 "/Library/Developer/CommandLineTools/usr/bin/../include/c++/v1" "type_traits"
	.file	10 "/Library/Developer/CommandLineTools/usr/bin/../include/c++/v1" "initializer_list"
	.file	11 "/Library/Developer/CommandLineTools/usr/bin/../include/c++/v1" "string_view"
	.file	12 "/Library/Developer/CommandLineTools/usr/bin/../include/c++/v1" "__string"
	.file	13 "/Library/Developer/CommandLineTools/usr/bin/../include/c++/v1" "iosfwd"
	.file	14 "/Library/Developer/CommandLineTools/usr/bin/../include/c++/v1" "mutex"
	.file	15 "/Library/Developer/CommandLineTools/SDKs/MacOSX.sdk/usr/include/sys/_types" "_int32_t.h"
	.file	16 "/Library/Developer/CommandLineTools/usr/bin/../include/c++/v1" "exception"
	.file	17 "/Library/Developer/CommandLineTools/usr/bin/../include/c++/v1" "stdexcept"
	.file	18 "/Library/Developer/CommandLineTools/usr/bin/../include/c++/v1" "vector"
	.file	19 "/Library/Developer/CommandLineTools/usr/bin/../include/c++/v1" "iterator"
	.file	20 "/Library/Developer/CommandLineTools/usr/bin/../include/c++/v1" "__split_buffer"
	.file	21 "/Library/Developer/CommandLineTools/usr/bin/../include/c++/v1" "streambuf"
	.file	22 "/Library/Developer/CommandLineTools/usr/bin/../include/c++/v1" "ostream"
	.file	23 "/Library/Developer/CommandLineTools/usr/bin/../include/c++/v1" "cstddef"
	.file	24 "/Library/Developer/CommandLineTools/usr/lib/clang/11.0.3/include" "__stddef_max_align_t.h"
	.file	25 "/Library/Developer/CommandLineTools/usr/bin/../include/c++/v1" "cstring"
	.file	26 "/Library/Developer/CommandLineTools/SDKs/MacOSX.sdk/usr/include" "string.h"
	.file	27 "/Library/Developer/CommandLineTools/usr/bin/../include/c++/v1" "string.h"
	.file	28 "/Library/Developer/CommandLineTools/SDKs/MacOSX.sdk/usr/include/sys/_types" "_int8_t.h"
	.file	29 "/Library/Developer/CommandLineTools/usr/bin/../include/c++/v1" "cstdint"
	.file	30 "/Library/Developer/CommandLineTools/SDKs/MacOSX.sdk/usr/include/sys/_types" "_int16_t.h"
	.file	31 "/Library/Developer/CommandLineTools/SDKs/MacOSX.sdk/usr/include/sys/_types" "_int64_t.h"
	.file	32 "/Library/Developer/CommandLineTools/SDKs/MacOSX.sdk/usr/include/_types" "_uint8_t.h"
	.file	33 "/Library/Developer/CommandLineTools/SDKs/MacOSX.sdk/usr/include/_types" "_uint16_t.h"
	.file	34 "/Library/Developer/CommandLineTools/SDKs/MacOSX.sdk/usr/include/_types" "_uint32_t.h"
	.file	35 "/Library/Developer/CommandLineTools/SDKs/MacOSX.sdk/usr/include/_types" "_uint64_t.h"
	.file	36 "/Library/Developer/CommandLineTools/SDKs/MacOSX.sdk/usr/include" "stdint.h"
	.file	37 "/Library/Developer/CommandLineTools/SDKs/MacOSX.sdk/usr/include/sys/_types" "_intptr_t.h"
	.file	38 "/Library/Developer/CommandLineTools/SDKs/MacOSX.sdk/usr/include/sys/_types" "_uintptr_t.h"
	.file	39 "/Library/Developer/CommandLineTools/SDKs/MacOSX.sdk/usr/include/_types" "_intmax_t.h"
	.file	40 "/Library/Developer/CommandLineTools/SDKs/MacOSX.sdk/usr/include/_types" "_uintmax_t.h"
	.file	41 "/Library/Developer/CommandLineTools/usr/bin/../include/c++/v1" "cstdlib"
	.file	42 "/Library/Developer/CommandLineTools/SDKs/MacOSX.sdk/usr/include" "stdlib.h"
	.file	43 "/Library/Developer/CommandLineTools/SDKs/MacOSX.sdk/usr/include/malloc" "_malloc.h"
	.file	44 "/Library/Developer/CommandLineTools/usr/bin/../include/c++/v1" "stdlib.h"
	.file	45 "/Library/Developer/CommandLineTools/SDKs/MacOSX.sdk/usr/include" "_stdio.h"
	.file	46 "/Library/Developer/CommandLineTools/SDKs/MacOSX.sdk/usr/include/sys" "_types.h"
	.file	47 "/Library/Developer/CommandLineTools/usr/bin/../include/c++/v1" "cstdio"
	.file	48 "/Library/Developer/CommandLineTools/SDKs/MacOSX.sdk/usr/include" "stdio.h"
	.file	49 "/Library/Developer/CommandLineTools/SDKs/MacOSX.sdk/usr/include" "_ctype.h"
	.file	50 "/Library/Developer/CommandLineTools/usr/bin/../include/c++/v1" "cctype"
	.file	51 "/Library/Developer/CommandLineTools/SDKs/MacOSX.sdk/usr/include/sys/_types" "_wint_t.h"
	.file	52 "/Library/Developer/CommandLineTools/usr/bin/../include/c++/v1" "cwctype"
	.file	53 "/Library/Developer/CommandLineTools/SDKs/MacOSX.sdk/usr/include" "_types.h"
	.file	54 "/Library/Developer/CommandLineTools/SDKs/MacOSX.sdk/usr/include/_types" "_wctrans_t.h"
	.file	55 "/Library/Developer/CommandLineTools/SDKs/MacOSX.sdk/usr/include/_types" "_wctype_t.h"
	.file	56 "/Library/Developer/CommandLineTools/SDKs/MacOSX.sdk/usr/include" "_wctype.h"
	.file	57 "/Library/Developer/CommandLineTools/SDKs/MacOSX.sdk/usr/include" "wctype.h"
	.file	58 "/Library/Developer/CommandLineTools/SDKs/MacOSX.sdk/usr/include/sys/_types" "_mbstate_t.h"
	.file	59 "/Library/Developer/CommandLineTools/usr/bin/../include/c++/v1" "cwchar"
	.file	60 "/Library/Developer/CommandLineTools/SDKs/MacOSX.sdk/usr/include" "time.h"
	.file	61 "/Library/Developer/CommandLineTools/SDKs/MacOSX.sdk/usr/include" "wchar.h"
	.file	62 "/Library/Developer/CommandLineTools/usr/bin/../include/c++/v1" "wchar.h"
	.file	63 "/Library/Developer/CommandLineTools/SDKs/MacOSX.sdk/usr/include/sys/_types" "_clock_t.h"
	.file	64 "/Library/Developer/CommandLineTools/usr/bin/../include/c++/v1" "ctime"
	.file	65 "/Library/Developer/CommandLineTools/SDKs/MacOSX.sdk/usr/include/sys/_types" "_time_t.h"
	.file	66 "/Users/kendrick/my_workspace/c_cpp_workspace/cpp_primer" "iterator.cpp"
	.globl	__Z3addii               ## -- Begin function _Z3addii
	.p2align	4, 0x90
__Z3addii:                              ## @_Z3addii
Lfunc_begin0:
	.loc	66 18 0                 ## iterator.cpp:18:0
	.cfi_startproc
## %bb.0:
	pushq	%rbp
	.cfi_def_cfa_offset 16
	.cfi_offset %rbp, -16
	movq	%rsp, %rbp
	.cfi_def_cfa_register %rbp
	movl	%edi, -4(%rbp)
	movl	%esi, -8(%rbp)
Ltmp0:
	.loc	66 19 12 prologue_end   ## iterator.cpp:19:12
	movl	-4(%rbp), %eax
	.loc	66 19 13 is_stmt 0      ## iterator.cpp:19:13
	addl	-8(%rbp), %eax
	.loc	66 19 5                 ## iterator.cpp:19:5
	popq	%rbp
	retq
Ltmp1:
Lfunc_end0:
	.cfi_endproc
                                        ## -- End function
	.globl	__Z3addiii              ## -- Begin function _Z3addiii
	.p2align	4, 0x90
__Z3addiii:                             ## @_Z3addiii
Lfunc_begin1:
	.loc	66 22 0 is_stmt 1       ## iterator.cpp:22:0
	.cfi_startproc
## %bb.0:
	pushq	%rbp
	.cfi_def_cfa_offset 16
	.cfi_offset %rbp, -16
	movq	%rsp, %rbp
	.cfi_def_cfa_register %rbp
	movl	%edi, -4(%rbp)
	movl	%esi, -8(%rbp)
	movl	%edx, -12(%rbp)
Ltmp2:
	.loc	66 23 12 prologue_end   ## iterator.cpp:23:12
	movl	-4(%rbp), %eax
	.loc	66 23 13 is_stmt 0      ## iterator.cpp:23:13
	addl	-8(%rbp), %eax
	.loc	66 23 15                ## iterator.cpp:23:15
	addl	-12(%rbp), %eax
	.loc	66 23 5                 ## iterator.cpp:23:5
	popq	%rbp
	retq
Ltmp3:
Lfunc_end1:
	.cfi_endproc
                                        ## -- End function
	.globl	__Z3addiiii             ## -- Begin function _Z3addiiii
	.p2align	4, 0x90
__Z3addiiii:                            ## @_Z3addiiii
Lfunc_begin2:
	.loc	66 26 0 is_stmt 1       ## iterator.cpp:26:0
	.cfi_startproc
## %bb.0:
	pushq	%rbp
	.cfi_def_cfa_offset 16
	.cfi_offset %rbp, -16
	movq	%rsp, %rbp
	.cfi_def_cfa_register %rbp
	movl	%edi, -4(%rbp)
	movl	%esi, -8(%rbp)
	movl	%edx, -12(%rbp)
	movl	%ecx, -16(%rbp)
Ltmp4:
	.loc	66 27 12 prologue_end   ## iterator.cpp:27:12
	movl	-4(%rbp), %eax
	.loc	66 27 13 is_stmt 0      ## iterator.cpp:27:13
	addl	-8(%rbp), %eax
	.loc	66 27 15                ## iterator.cpp:27:15
	addl	-12(%rbp), %eax
	.loc	66 27 17                ## iterator.cpp:27:17
	addl	-16(%rbp), %eax
	.loc	66 27 5                 ## iterator.cpp:27:5
	popq	%rbp
	retq
Ltmp5:
Lfunc_end2:
	.cfi_endproc
                                        ## -- End function
	.globl	_main                   ## -- Begin function main
	.p2align	4, 0x90
_main:                                  ## @main
Lfunc_begin3:
	.loc	66 30 0 is_stmt 1       ## iterator.cpp:30:0
	.cfi_startproc
	.cfi_personality 155, ___gxx_personality_v0
	.cfi_lsda 16, Lexception0
## %bb.0:
	pushq	%rbp
	.cfi_def_cfa_offset 16
	.cfi_offset %rbp, -16
	movq	%rsp, %rbp
	.cfi_def_cfa_register %rbp
	subq	$528, %rsp              ## imm = 0x210
	movq	___stack_chk_guard@GOTPCREL(%rip), %rax
	movq	(%rax), %rax
	movq	%rax, -8(%rbp)
	movl	$0, -52(%rbp)
	movl	%edi, -56(%rbp)
	movq	%rsi, -64(%rbp)
Ltmp52:
	.loc	66 31 25 prologue_end   ## iterator.cpp:31:25
	movq	-64(%rbp), %rax
	movq	8(%rax), %rdi
	.loc	66 31 20 is_stmt 0      ## iterator.cpp:31:20
	callq	_atol
	.loc	66 31 10                ## iterator.cpp:31:10
	movq	%rax, -72(%rbp)
	.loc	66 32 24 is_stmt 1      ## iterator.cpp:32:24
	movq	l_constinit+32(%rip), %rax
	movq	%rax, -16(%rbp)
	movq	l_constinit+24(%rip), %rax
	movq	%rax, -24(%rbp)
	movq	l_constinit+16(%rip), %rax
	movq	%rax, -32(%rbp)
	movq	l_constinit+8(%rip), %rax
	movq	%rax, -40(%rbp)
	movq	l_constinit(%rip), %rax
	movq	%rax, -48(%rbp)
	leaq	-48(%rbp), %rax
	movq	%rax, -112(%rbp)
	movq	$10, -104(%rbp)
	movq	-112(%rbp), %rsi
	movq	-104(%rbp), %rdx
	leaq	-96(%rbp), %rax
	movq	%rax, %rdi
	movq	%rax, -376(%rbp)        ## 8-byte Spill
	callq	__ZNSt3__16vectorIiNS_9allocatorIiEEEC1ESt16initializer_listIiE
	.loc	66 33 20                ## iterator.cpp:33:20
	movl	$11, -116(%rbp)
Ltmp6:
	leaq	-116(%rbp), %rsi
	movq	-376(%rbp), %rdi        ## 8-byte Reload
	.loc	66 33 10 is_stmt 0      ## iterator.cpp:33:10
	callq	__ZNSt3__16vectorIiNS_9allocatorIiEEE9push_backEOi
Ltmp7:
	jmp	LBB3_1
LBB3_1:
Ltmp53:
	.loc	66 34 21 is_stmt 1      ## iterator.cpp:34:21
	leaq	-96(%rbp), %rax
	movq	%rax, -144(%rbp)
	.loc	66 34 19 is_stmt 0      ## iterator.cpp:34:19
	movq	-144(%rbp), %rdi
	callq	__ZNSt3__16vectorIiNS_9allocatorIiEEE5beginEv
	movq	%rax, -152(%rbp)
	movq	-144(%rbp), %rdi
	callq	__ZNSt3__16vectorIiNS_9allocatorIiEEE3endEv
	movq	%rax, -160(%rbp)
LBB3_2:                                 ## =>This Inner Loop Header: Depth=1
	leaq	-152(%rbp), %rdi
	leaq	-160(%rbp), %rsi
	callq	__ZNSt3__1neIPiEEbRKNS_11__wrap_iterIT_EES6_
	testb	$1, %al
	jne	LBB3_3
	jmp	LBB3_9
LBB3_3:                                 ##   in Loop: Header=BB3_2 Depth=1
	.loc	66 0 19                 ## iterator.cpp:0:19
	leaq	-152(%rbp), %rdi
Ltmp54:
	.loc	66 34 19                ## iterator.cpp:34:19
	callq	__ZNKSt3__111__wrap_iterIPiEdeEv
	.loc	66 34 15                ## iterator.cpp:34:15
	movq	%rax, -168(%rbp)
Ltmp45:
Ltmp55:
	.loc	66 35 14 is_stmt 1      ## iterator.cpp:35:14
	movq	__ZNSt3__14coutE@GOTPCREL(%rip), %rdi
	leaq	L_.str(%rip), %rsi
	callq	__ZNSt3__1lsINS_11char_traitsIcEEEERNS_13basic_ostreamIcT_EES6_PKc
Ltmp46:
	movq	%rax, -384(%rbp)        ## 8-byte Spill
	jmp	LBB3_4
LBB3_4:                                 ##   in Loop: Header=BB3_2 Depth=1
	.loc	66 35 36 is_stmt 0      ## iterator.cpp:35:36
	movq	-168(%rbp), %rax
	movl	(%rax), %esi
Ltmp47:
	movq	-384(%rbp), %rdi        ## 8-byte Reload
	.loc	66 35 33                ## iterator.cpp:35:33
	callq	__ZNSt3__113basic_ostreamIcNS_11char_traitsIcEEElsEi
Ltmp48:
	movq	%rax, -392(%rbp)        ## 8-byte Spill
	jmp	LBB3_5
LBB3_5:                                 ##   in Loop: Header=BB3_2 Depth=1
Ltmp49:
	.loc	66 35 40                ## iterator.cpp:35:40
	leaq	__ZNSt3__1L4endlIcNS_11char_traitsIcEEEERNS_13basic_ostreamIT_T0_EES7_(%rip), %rsi
	movq	-392(%rbp), %rdi        ## 8-byte Reload
	callq	__ZNSt3__113basic_ostreamIcNS_11char_traitsIcEEElsEPFRS3_S4_E
Ltmp50:
	jmp	LBB3_6
Ltmp56:
LBB3_6:                                 ##   in Loop: Header=BB3_2 Depth=1
	.loc	66 34 5 is_stmt 1       ## iterator.cpp:34:5
	jmp	LBB3_7
LBB3_7:                                 ##   in Loop: Header=BB3_2 Depth=1
	.loc	66 34 19 is_stmt 0      ## iterator.cpp:34:19
	leaq	-152(%rbp), %rdi
	callq	__ZNSt3__111__wrap_iterIPiEppEv
	jmp	LBB3_2
Ltmp57:
LBB3_8:
Ltmp51:
                                        ## kill: def $edx killed $edx killed $rdx
	.loc	66 71 1 is_stmt 1       ## iterator.cpp:71:1
	movq	%rax, -128(%rbp)
	movl	%edx, -132(%rbp)
	jmp	LBB3_48
LBB3_9:
Ltmp8:
	.loc	66 0 1 is_stmt 0        ## iterator.cpp:0:1
	leaq	-96(%rbp), %rdi
	.loc	66 37 10 is_stmt 1      ## iterator.cpp:37:10
	callq	__ZNSt3__16vectorIiNS_9allocatorIiEEE8pop_backEv
Ltmp9:
	jmp	LBB3_10
LBB3_10:
Ltmp58:
	.loc	66 38 21                ## iterator.cpp:38:21
	leaq	-96(%rbp), %rax
	movq	%rax, -176(%rbp)
	.loc	66 38 19 is_stmt 0      ## iterator.cpp:38:19
	movq	-176(%rbp), %rdi
	callq	__ZNSt3__16vectorIiNS_9allocatorIiEEE5beginEv
	movq	%rax, -184(%rbp)
	movq	-176(%rbp), %rdi
	callq	__ZNSt3__16vectorIiNS_9allocatorIiEEE3endEv
	movq	%rax, -192(%rbp)
LBB3_11:                                ## =>This Inner Loop Header: Depth=1
	leaq	-184(%rbp), %rdi
	leaq	-192(%rbp), %rsi
	callq	__ZNSt3__1neIPiEEbRKNS_11__wrap_iterIT_EES6_
	testb	$1, %al
	jne	LBB3_12
	jmp	LBB3_17
LBB3_12:                                ##   in Loop: Header=BB3_11 Depth=1
	.loc	66 0 19                 ## iterator.cpp:0:19
	leaq	-184(%rbp), %rdi
Ltmp59:
	.loc	66 38 19                ## iterator.cpp:38:19
	callq	__ZNKSt3__111__wrap_iterIPiEdeEv
	.loc	66 38 15                ## iterator.cpp:38:15
	movq	%rax, -200(%rbp)
Ltmp39:
Ltmp60:
	.loc	66 39 14 is_stmt 1      ## iterator.cpp:39:14
	movq	__ZNSt3__14coutE@GOTPCREL(%rip), %rdi
	leaq	L_.str(%rip), %rsi
	callq	__ZNSt3__1lsINS_11char_traitsIcEEEERNS_13basic_ostreamIcT_EES6_PKc
Ltmp40:
	movq	%rax, -400(%rbp)        ## 8-byte Spill
	jmp	LBB3_13
LBB3_13:                                ##   in Loop: Header=BB3_11 Depth=1
	.loc	66 39 36 is_stmt 0      ## iterator.cpp:39:36
	movq	-200(%rbp), %rax
	movl	(%rax), %esi
Ltmp41:
	movq	-400(%rbp), %rdi        ## 8-byte Reload
	.loc	66 39 33                ## iterator.cpp:39:33
	callq	__ZNSt3__113basic_ostreamIcNS_11char_traitsIcEEElsEi
Ltmp42:
	movq	%rax, -408(%rbp)        ## 8-byte Spill
	jmp	LBB3_14
LBB3_14:                                ##   in Loop: Header=BB3_11 Depth=1
Ltmp43:
	.loc	66 39 40                ## iterator.cpp:39:40
	leaq	__ZNSt3__1L4endlIcNS_11char_traitsIcEEEERNS_13basic_ostreamIT_T0_EES7_(%rip), %rsi
	movq	-408(%rbp), %rdi        ## 8-byte Reload
	callq	__ZNSt3__113basic_ostreamIcNS_11char_traitsIcEEElsEPFRS3_S4_E
Ltmp44:
	jmp	LBB3_15
Ltmp61:
LBB3_15:                                ##   in Loop: Header=BB3_11 Depth=1
	.loc	66 38 5 is_stmt 1       ## iterator.cpp:38:5
	jmp	LBB3_16
LBB3_16:                                ##   in Loop: Header=BB3_11 Depth=1
	.loc	66 38 19 is_stmt 0      ## iterator.cpp:38:19
	leaq	-184(%rbp), %rdi
	callq	__ZNSt3__111__wrap_iterIPiEppEv
	jmp	LBB3_11
Ltmp62:
LBB3_17:
	.loc	66 41 21 is_stmt 1      ## iterator.cpp:41:21
	leaq	-96(%rbp), %rdi
	callq	__ZNSt3__16vectorIiNS_9allocatorIiEEE5beginEv
	movq	%rax, -208(%rbp)
	.loc	66 42 21                ## iterator.cpp:42:21
	leaq	-96(%rbp), %rdi
	callq	__ZNSt3__16vectorIiNS_9allocatorIiEEE3endEv
	movq	%rax, -216(%rbp)
	.loc	66 43 27                ## iterator.cpp:43:27
	leaq	-216(%rbp), %rdi
	leaq	-208(%rbp), %rsi
	callq	__ZNSt3__1miIPiS1_EEDTmicldtfp_4baseEcldtfp0_4baseEERKNS_11__wrap_iterIT_EERKNS3_IT0_EE
	.loc	66 43 33 is_stmt 0      ## iterator.cpp:43:33
	cqto
	movl	$2, %ecx
	idivq	%rcx
	.loc	66 43 20                ## iterator.cpp:43:20
	leaq	-208(%rbp), %rdi
	movq	%rax, %rsi
	callq	__ZNKSt3__111__wrap_iterIPiEplEl
	movq	%rax, -224(%rbp)
LBB3_18:                                ## =>This Inner Loop Header: Depth=1
	.loc	66 44 11 is_stmt 1      ## iterator.cpp:44:11
	leaq	-224(%rbp), %rdi
	callq	__ZNKSt3__111__wrap_iterIPiEdeEv
	xorl	%ecx, %ecx
                                        ## kill: def $cl killed $cl killed $ecx
	movslq	(%rax), %rax
	.loc	66 44 16 is_stmt 0      ## iterator.cpp:44:16
	cmpq	-72(%rbp), %rax
	movb	%cl, -409(%rbp)         ## 1-byte Spill
	.loc	66 44 27                ## iterator.cpp:44:27
	je	LBB3_20
## %bb.19:                              ##   in Loop: Header=BB3_18 Depth=1
	.loc	66 44 34                ## iterator.cpp:44:34
	leaq	-224(%rbp), %rdi
	leaq	-216(%rbp), %rsi
	callq	__ZNSt3__1neIPiEEbRKNS_11__wrap_iterIT_EES6_
	movb	%al, -409(%rbp)         ## 1-byte Spill
LBB3_20:                                ##   in Loop: Header=BB3_18 Depth=1
	.loc	66 0 34                 ## iterator.cpp:0:34
	movb	-409(%rbp), %al         ## 1-byte Reload
	.loc	66 44 5                 ## iterator.cpp:44:5
	testb	$1, %al
	jne	LBB3_21
	jmp	LBB3_25
LBB3_21:                                ##   in Loop: Header=BB3_18 Depth=1
Ltmp63:
	.loc	66 45 12 is_stmt 1      ## iterator.cpp:45:12
	movq	-72(%rbp), %rax
	.loc	66 45 22 is_stmt 0      ## iterator.cpp:45:22
	leaq	-224(%rbp), %rdi
	movq	%rax, -424(%rbp)        ## 8-byte Spill
	callq	__ZNKSt3__111__wrap_iterIPiEdeEv
	movslq	(%rax), %rax
	movq	-424(%rbp), %rcx        ## 8-byte Reload
	.loc	66 45 20                ## iterator.cpp:45:20
	cmpq	%rax, %rcx
Ltmp64:
	.loc	66 45 12                ## iterator.cpp:45:12
	jge	LBB3_23
## %bb.22:                              ##   in Loop: Header=BB3_18 Depth=1
Ltmp65:
	.loc	66 46 17 is_stmt 1      ## iterator.cpp:46:17
	movq	-224(%rbp), %rax
	movq	%rax, -216(%rbp)
	.loc	66 47 9                 ## iterator.cpp:47:9
	jmp	LBB3_24
Ltmp66:
LBB3_23:                                ##   in Loop: Header=BB3_18 Depth=1
	.loc	66 48 22                ## iterator.cpp:48:22
	leaq	-224(%rbp), %rdi
	movl	$1, %esi
	callq	__ZNKSt3__111__wrap_iterIPiEplEl
	movq	%rax, -232(%rbp)
	.loc	66 48 17 is_stmt 0      ## iterator.cpp:48:17
	movq	-232(%rbp), %rax
	movq	%rax, -208(%rbp)
Ltmp67:
LBB3_24:                                ##   in Loop: Header=BB3_18 Depth=1
	.loc	66 50 26 is_stmt 1      ## iterator.cpp:50:26
	leaq	-216(%rbp), %rdi
	leaq	-208(%rbp), %rsi
	callq	__ZNSt3__1miIPiS1_EEDTmicldtfp_4baseEcldtfp0_4baseEERKNS_11__wrap_iterIT_EERKNS3_IT0_EE
	.loc	66 50 32 is_stmt 0      ## iterator.cpp:50:32
	cqto
	movl	$2, %ecx
	idivq	%rcx
	.loc	66 50 19                ## iterator.cpp:50:19
	leaq	-208(%rbp), %rdi
	movq	%rax, %rsi
	callq	__ZNKSt3__111__wrap_iterIPiEplEl
	movq	%rax, -240(%rbp)
	.loc	66 50 13                ## iterator.cpp:50:13
	movq	-240(%rbp), %rax
	movq	%rax, -224(%rbp)
Ltmp68:
	.loc	66 44 5 is_stmt 1       ## iterator.cpp:44:5
	jmp	LBB3_18
LBB3_25:
Ltmp10:
	.loc	66 52 10                ## iterator.cpp:52:10
	movq	__ZNSt3__14coutE@GOTPCREL(%rip), %rdi
	leaq	L_.str.1(%rip), %rsi
	callq	__ZNSt3__1lsINS_11char_traitsIcEEEERNS_13basic_ostreamIcT_EES6_PKc
Ltmp11:
	movq	%rax, -432(%rbp)        ## 8-byte Spill
	jmp	LBB3_26
LBB3_26:
	.loc	66 0 10 is_stmt 0       ## iterator.cpp:0:10
	leaq	-96(%rbp), %rdi
	.loc	66 52 44                ## iterator.cpp:52:44
	callq	__ZNSt3__16vectorIiNS_9allocatorIiEEE5beginEv
	movq	%rax, -248(%rbp)
	leaq	-224(%rbp), %rdi
	leaq	-248(%rbp), %rsi
	.loc	66 52 38                ## iterator.cpp:52:38
	callq	__ZNSt3__1miIPiS1_EEDTmicldtfp_4baseEcldtfp0_4baseEERKNS_11__wrap_iterIT_EERKNS3_IT0_EE
Ltmp12:
	movq	-432(%rbp), %rdi        ## 8-byte Reload
	.loc	66 52 32                ## iterator.cpp:52:32
	movq	%rax, %rsi
	callq	__ZNSt3__113basic_ostreamIcNS_11char_traitsIcEEElsEl
Ltmp13:
	movq	%rax, -440(%rbp)        ## 8-byte Spill
	jmp	LBB3_27
LBB3_27:
Ltmp14:
	.loc	66 52 52                ## iterator.cpp:52:52
	leaq	__ZNSt3__1L4endlIcNS_11char_traitsIcEEEERNS_13basic_ostreamIT_T0_EES7_(%rip), %rsi
	movq	-440(%rbp), %rdi        ## 8-byte Reload
	callq	__ZNSt3__113basic_ostreamIcNS_11char_traitsIcEEElsEPFRS3_S4_E
Ltmp15:
	jmp	LBB3_28
LBB3_28:
	.loc	66 53 28 is_stmt 1      ## iterator.cpp:53:28
	movl	$0, -276(%rbp)
Ltmp16:
	leaq	-272(%rbp), %rdi
	movl	$10, %esi
	leaq	-276(%rbp), %rdx
	.loc	66 53 17 is_stmt 0      ## iterator.cpp:53:17
	callq	__ZNSt3__16vectorIiNS_9allocatorIiEEEC1EmRKi
Ltmp17:
	jmp	LBB3_29
LBB3_29:
	.loc	66 0 17                 ## iterator.cpp:0:17
	leaq	-288(%rbp), %rdi
	.loc	66 54 27 is_stmt 1      ## iterator.cpp:54:27
	callq	__ZNSt3__111__wrap_iterIPiEC1Ev
	leaq	-296(%rbp), %rax
	.loc	66 55 33                ## iterator.cpp:55:33
	movq	%rax, %rdi
	movq	%rax, -448(%rbp)        ## 8-byte Spill
	callq	__ZNSt3__111__wrap_iterIPKiEC1Ev
	leaq	-272(%rbp), %rax
	.loc	66 56 21                ## iterator.cpp:56:21
	movq	%rax, %rdi
	movq	%rax, -456(%rbp)        ## 8-byte Spill
	callq	__ZNSt3__16vectorIiNS_9allocatorIiEEE5beginEv
	movq	%rax, -304(%rbp)
	movq	-456(%rbp), %rdi        ## 8-byte Reload
	.loc	66 57 17                ## iterator.cpp:57:17
	callq	__ZNSt3__16vectorIiNS_9allocatorIiEEE5beginEv
	movq	%rax, -312(%rbp)
	.loc	66 57 8 is_stmt 0       ## iterator.cpp:57:8
	movq	-312(%rbp), %rax
	movq	%rax, -288(%rbp)
	movq	-456(%rbp), %rdi        ## 8-byte Reload
	.loc	66 58 18 is_stmt 1      ## iterator.cpp:58:18
	callq	__ZNSt3__16vectorIiNS_9allocatorIiEEE5beginEv
	movq	%rax, -328(%rbp)
	xorl	%ecx, %ecx
	movl	%ecx, %edx
	leaq	-320(%rbp), %rdi
	leaq	-328(%rbp), %rsi
	.loc	66 58 11 is_stmt 0      ## iterator.cpp:58:11
	callq	__ZNSt3__111__wrap_iterIPKiEC1IPiEERKNS0_IT_EEPNS_9enable_ifIXsr14is_convertibleIS6_S2_EE5valueEvE4typeE
	.loc	66 58 9                 ## iterator.cpp:58:9
	movq	-320(%rbp), %rax
	movq	%rax, -296(%rbp)
	movq	-448(%rbp), %rdi        ## 8-byte Reload
	.loc	66 59 13 is_stmt 1      ## iterator.cpp:59:13
	callq	__ZNKSt3__111__wrap_iterIPKiEdeEv
	movl	(%rax), %esi
Ltmp18:
	.loc	66 59 10 is_stmt 0      ## iterator.cpp:59:10
	movq	__ZNSt3__14coutE@GOTPCREL(%rip), %rdi
	callq	__ZNSt3__113basic_ostreamIcNS_11char_traitsIcEEElsEi
Ltmp19:
	movq	%rax, -464(%rbp)        ## 8-byte Spill
	jmp	LBB3_30
LBB3_30:
Ltmp20:
	.loc	66 59 18                ## iterator.cpp:59:18
	leaq	__ZNSt3__1L4endlIcNS_11char_traitsIcEEEERNS_13basic_ostreamIT_T0_EES7_(%rip), %rsi
	movq	-464(%rbp), %rdi        ## 8-byte Reload
	callq	__ZNSt3__113basic_ostreamIcNS_11char_traitsIcEEElsEPFRS3_S4_E
Ltmp21:
	jmp	LBB3_31
LBB3_31:
Ltmp69:
	.loc	66 60 21 is_stmt 1      ## iterator.cpp:60:21
	leaq	-272(%rbp), %rax
	movq	%rax, -336(%rbp)
	.loc	66 60 19 is_stmt 0      ## iterator.cpp:60:19
	movq	-336(%rbp), %rdi
	callq	__ZNSt3__16vectorIiNS_9allocatorIiEEE5beginEv
	movq	%rax, -344(%rbp)
	movq	-336(%rbp), %rdi
	callq	__ZNSt3__16vectorIiNS_9allocatorIiEEE3endEv
	movq	%rax, -352(%rbp)
LBB3_32:                                ## =>This Inner Loop Header: Depth=1
	leaq	-344(%rbp), %rdi
	leaq	-352(%rbp), %rsi
	callq	__ZNSt3__1neIPiEEbRKNS_11__wrap_iterIT_EES6_
	testb	$1, %al
	jne	LBB3_33
	jmp	LBB3_39
LBB3_33:                                ##   in Loop: Header=BB3_32 Depth=1
	.loc	66 0 19                 ## iterator.cpp:0:19
	leaq	-344(%rbp), %rdi
Ltmp70:
	.loc	66 60 19                ## iterator.cpp:60:19
	callq	__ZNKSt3__111__wrap_iterIPiEdeEv
	.loc	66 60 15                ## iterator.cpp:60:15
	movq	%rax, -360(%rbp)
	leaq	-288(%rbp), %rax
Ltmp71:
	.loc	66 61 9 is_stmt 1       ## iterator.cpp:61:9
	movq	%rax, %rdi
	movq	%rax, -472(%rbp)        ## 8-byte Spill
	callq	__ZNKSt3__111__wrap_iterIPiEdeEv
	.loc	66 61 13 is_stmt 0      ## iterator.cpp:61:13
	movl	$1, (%rax)
	xorl	%esi, %esi
	movq	-472(%rbp), %rdi        ## 8-byte Reload
	.loc	66 62 9 is_stmt 1       ## iterator.cpp:62:9
	callq	__ZNSt3__111__wrap_iterIPiEppEi
	movq	%rax, -368(%rbp)
Ltmp32:
	.loc	66 63 14                ## iterator.cpp:63:14
	movq	__ZNSt3__14coutE@GOTPCREL(%rip), %rdi
	leaq	L_.str(%rip), %rsi
	callq	__ZNSt3__1lsINS_11char_traitsIcEEEERNS_13basic_ostreamIcT_EES6_PKc
Ltmp33:
	movq	%rax, -480(%rbp)        ## 8-byte Spill
	jmp	LBB3_34
LBB3_34:                                ##   in Loop: Header=BB3_32 Depth=1
	.loc	66 63 36 is_stmt 0      ## iterator.cpp:63:36
	movq	-360(%rbp), %rax
	movl	(%rax), %esi
Ltmp34:
	movq	-480(%rbp), %rdi        ## 8-byte Reload
	.loc	66 63 33                ## iterator.cpp:63:33
	callq	__ZNSt3__113basic_ostreamIcNS_11char_traitsIcEEElsEi
Ltmp35:
	movq	%rax, -488(%rbp)        ## 8-byte Spill
	jmp	LBB3_35
LBB3_35:                                ##   in Loop: Header=BB3_32 Depth=1
Ltmp36:
	.loc	66 63 40                ## iterator.cpp:63:40
	leaq	__ZNSt3__1L4endlIcNS_11char_traitsIcEEEERNS_13basic_ostreamIT_T0_EES7_(%rip), %rsi
	movq	-488(%rbp), %rdi        ## 8-byte Reload
	callq	__ZNSt3__113basic_ostreamIcNS_11char_traitsIcEEElsEPFRS3_S4_E
Ltmp37:
	jmp	LBB3_36
Ltmp72:
LBB3_36:                                ##   in Loop: Header=BB3_32 Depth=1
	.loc	66 60 5 is_stmt 1       ## iterator.cpp:60:5
	jmp	LBB3_37
LBB3_37:                                ##   in Loop: Header=BB3_32 Depth=1
	.loc	66 60 19 is_stmt 0      ## iterator.cpp:60:19
	leaq	-344(%rbp), %rdi
	callq	__ZNSt3__111__wrap_iterIPiEppEv
	jmp	LBB3_32
Ltmp73:
LBB3_38:
Ltmp38:
                                        ## kill: def $edx killed $edx killed $rdx
	.loc	66 71 1 is_stmt 1       ## iterator.cpp:71:1
	movq	%rax, -128(%rbp)
	movl	%edx, -132(%rbp)
	leaq	-272(%rbp), %rdi
	callq	__ZNSt3__16vectorIiNS_9allocatorIiEEED1Ev
	jmp	LBB3_48
LBB3_39:
	.loc	66 0 1 is_stmt 0        ## iterator.cpp:0:1
	movq	__ZTINSt3__111__wrap_iterIPiEE@GOTPCREL(%rip), %rax
Ltmp74:
	.loc	66 65 18 is_stmt 1      ## iterator.cpp:65:18
	movq	%rax, %rdi
	movq	%rax, %rsi
	callq	__ZNKSt9type_infoeqERKS_
Ltmp75:
	.loc	66 65 8 is_stmt 0       ## iterator.cpp:65:8
	testb	$1, %al
	jne	LBB3_40
	jmp	LBB3_43
LBB3_40:
Ltmp22:
Ltmp76:
	.loc	66 66 14 is_stmt 1      ## iterator.cpp:66:14
	movq	__ZNSt3__14coutE@GOTPCREL(%rip), %rdi
	leaq	L_.str.2(%rip), %rsi
	callq	__ZNSt3__1lsINS_11char_traitsIcEEEERNS_13basic_ostreamIcT_EES6_PKc
Ltmp23:
	movq	%rax, -496(%rbp)        ## 8-byte Spill
	jmp	LBB3_41
LBB3_41:
Ltmp24:
	.loc	66 66 41 is_stmt 0      ## iterator.cpp:66:41
	leaq	__ZNSt3__1L4endlIcNS_11char_traitsIcEEEERNS_13basic_ostreamIT_T0_EES7_(%rip), %rsi
	movq	-496(%rbp), %rdi        ## 8-byte Reload
	callq	__ZNSt3__113basic_ostreamIcNS_11char_traitsIcEEElsEPFRS3_S4_E
Ltmp25:
	jmp	LBB3_42
LBB3_42:
	.loc	66 67 5 is_stmt 1       ## iterator.cpp:67:5
	jmp	LBB3_43
Ltmp77:
LBB3_43:
Ltmp26:
	.loc	66 0 5 is_stmt 0        ## iterator.cpp:0:5
	movl	$10, %edi
	movl	$20, %esi
	.loc	66 69 13 is_stmt 1      ## iterator.cpp:69:13
	callq	__Z3addii
Ltmp27:
	movl	%eax, -500(%rbp)        ## 4-byte Spill
	jmp	LBB3_44
LBB3_44:
Ltmp28:
	.loc	66 69 10 is_stmt 0      ## iterator.cpp:69:10
	movq	__ZNSt3__14coutE@GOTPCREL(%rip), %rdi
	movl	-500(%rbp), %esi        ## 4-byte Reload
	callq	__ZNSt3__113basic_ostreamIcNS_11char_traitsIcEEElsEi
Ltmp29:
	movq	%rax, -512(%rbp)        ## 8-byte Spill
	jmp	LBB3_45
LBB3_45:
Ltmp30:
	.loc	66 69 25                ## iterator.cpp:69:25
	leaq	__ZNSt3__1L4endlIcNS_11char_traitsIcEEEERNS_13basic_ostreamIT_T0_EES7_(%rip), %rsi
	movq	-512(%rbp), %rdi        ## 8-byte Reload
	callq	__ZNSt3__113basic_ostreamIcNS_11char_traitsIcEEElsEPFRS3_S4_E
Ltmp31:
	jmp	LBB3_46
LBB3_46:
	.loc	66 70 5 is_stmt 1       ## iterator.cpp:70:5
	movl	$0, -52(%rbp)
	.loc	66 71 1                 ## iterator.cpp:71:1
	leaq	-272(%rbp), %rdi
	callq	__ZNSt3__16vectorIiNS_9allocatorIiEEED1Ev
	leaq	-96(%rbp), %rdi
	callq	__ZNSt3__16vectorIiNS_9allocatorIiEEED1Ev
	movl	-52(%rbp), %eax
	movq	___stack_chk_guard@GOTPCREL(%rip), %rcx
	movq	(%rcx), %rcx
	movq	-8(%rbp), %rdx
	cmpq	%rdx, %rcx
	movl	%eax, -516(%rbp)        ## 4-byte Spill
	jne	LBB3_50
## %bb.47:
	.loc	66 0 1 is_stmt 0        ## iterator.cpp:0:1
	movl	-516(%rbp), %eax        ## 4-byte Reload
	.loc	66 71 1                 ## iterator.cpp:71:1
	addq	$528, %rsp              ## imm = 0x210
	popq	%rbp
	retq
LBB3_48:
	leaq	-96(%rbp), %rdi
	callq	__ZNSt3__16vectorIiNS_9allocatorIiEEED1Ev
## %bb.49:
	movq	-128(%rbp), %rdi
	callq	__Unwind_Resume
	ud2
LBB3_50:
	.loc	66 0 0                  ## iterator.cpp:0:0
	callq	___stack_chk_fail
	ud2
Ltmp78:
Lfunc_end3:
	.cfi_endproc
	.section	__TEXT,__gcc_except_tab
	.p2align	2
GCC_except_table3:
Lexception0:
	.byte	255                     ## @LPStart Encoding = omit
	.byte	255                     ## @TType Encoding = omit
	.byte	1                       ## Call site Encoding = uleb128
	.uleb128 Lcst_end0-Lcst_begin0
Lcst_begin0:
	.uleb128 Lfunc_begin3-Lfunc_begin3 ## >> Call Site 1 <<
	.uleb128 Ltmp6-Lfunc_begin3     ##   Call between Lfunc_begin3 and Ltmp6
	.byte	0                       ##     has no landing pad
	.byte	0                       ##   On action: cleanup
	.uleb128 Ltmp6-Lfunc_begin3     ## >> Call Site 2 <<
	.uleb128 Ltmp17-Ltmp6           ##   Call between Ltmp6 and Ltmp17
	.uleb128 Ltmp51-Lfunc_begin3    ##     jumps to Ltmp51
	.byte	0                       ##   On action: cleanup
	.uleb128 Ltmp18-Lfunc_begin3    ## >> Call Site 3 <<
	.uleb128 Ltmp31-Ltmp18          ##   Call between Ltmp18 and Ltmp31
	.uleb128 Ltmp38-Lfunc_begin3    ##     jumps to Ltmp38
	.byte	0                       ##   On action: cleanup
	.uleb128 Ltmp31-Lfunc_begin3    ## >> Call Site 4 <<
	.uleb128 Lfunc_end3-Ltmp31      ##   Call between Ltmp31 and Lfunc_end3
	.byte	0                       ##     has no landing pad
	.byte	0                       ##   On action: cleanup
Lcst_end0:
	.p2align	2
                                        ## -- End function
	.section	__TEXT,__text,regular,pure_instructions
	.p2align	4, 0x90         ## -- Begin function _ZNSt3__16vectorIiNS_9allocatorIiEEEC1ESt16initializer_listIiE
__ZNSt3__16vectorIiNS_9allocatorIiEEEC1ESt16initializer_listIiE: ## @_ZNSt3__16vectorIiNS_9allocatorIiEEEC1ESt16initializer_listIiE
Lfunc_begin4:
	.loc	18 1321 0 is_stmt 1     ## /Library/Developer/CommandLineTools/usr/bin/../include/c++/v1/vector:1321:0
	.cfi_startproc
## %bb.0:
	pushq	%rbp
	.cfi_def_cfa_offset 16
	.cfi_offset %rbp, -16
	movq	%rsp, %rbp
	.cfi_def_cfa_register %rbp
	subq	$32, %rsp
	movq	%rsi, -16(%rbp)
	movq	%rdx, -8(%rbp)
	movq	%rdi, -24(%rbp)
	movq	-24(%rbp), %rdi
Ltmp79:
	.loc	18 1321 1 prologue_end  ## /Library/Developer/CommandLineTools/usr/bin/../include/c++/v1/vector:1321:1
	movq	-16(%rbp), %rsi
	movq	-8(%rbp), %rdx
	callq	__ZNSt3__16vectorIiNS_9allocatorIiEEEC2ESt16initializer_listIiE
	.loc	18 1330 1               ## /Library/Developer/CommandLineTools/usr/bin/../include/c++/v1/vector:1330:1
	addq	$32, %rsp
	popq	%rbp
	retq
Ltmp80:
Lfunc_end4:
	.cfi_endproc
                                        ## -- End function
	.p2align	4, 0x90         ## -- Begin function _ZNSt3__16vectorIiNS_9allocatorIiEEE9push_backEOi
__ZNSt3__16vectorIiNS_9allocatorIiEEE9push_backEOi: ## @_ZNSt3__16vectorIiNS_9allocatorIiEEE9push_backEOi
Lfunc_begin5:
	.loc	18 1647 0               ## /Library/Developer/CommandLineTools/usr/bin/../include/c++/v1/vector:1647:0
	.cfi_startproc
## %bb.0:
	pushq	%rbp
	.cfi_def_cfa_offset 16
	.cfi_offset %rbp, -16
	movq	%rsp, %rbp
	.cfi_def_cfa_register %rbp
	subq	$64, %rsp
	movq	%rdi, -8(%rbp)
	movq	%rsi, -16(%rbp)
	movq	-8(%rbp), %rax
Ltmp81:
	.loc	18 1648 15 prologue_end ## /Library/Developer/CommandLineTools/usr/bin/../include/c++/v1/vector:1648:15
	movq	8(%rax), %rcx
	.loc	18 1648 30 is_stmt 0    ## /Library/Developer/CommandLineTools/usr/bin/../include/c++/v1/vector:1648:30
	movq	%rax, %rdx
	movq	%rdx, %rdi
	movq	%rax, -32(%rbp)         ## 8-byte Spill
	movq	%rcx, -40(%rbp)         ## 8-byte Spill
	callq	__ZNSt3__113__vector_baseIiNS_9allocatorIiEEE9__end_capEv
	movq	-40(%rbp), %rcx         ## 8-byte Reload
	.loc	18 1648 22              ## /Library/Developer/CommandLineTools/usr/bin/../include/c++/v1/vector:1648:22
	cmpq	(%rax), %rcx
Ltmp82:
	.loc	18 1648 9               ## /Library/Developer/CommandLineTools/usr/bin/../include/c++/v1/vector:1648:9
	jae	LBB5_2
## %bb.1:
Ltmp83:
	.loc	18 1650 34 is_stmt 1    ## /Library/Developer/CommandLineTools/usr/bin/../include/c++/v1/vector:1650:34
	leaq	-24(%rbp), %rdi
Ltmp84:
	##DEBUG_VALUE: __annotator <- [$rdi+0]
	.loc	18 0 34 is_stmt 0       ## /Library/Developer/CommandLineTools/usr/bin/../include/c++/v1/vector:0:34
	movq	-32(%rbp), %rsi         ## 8-byte Reload
	.loc	18 1650 34              ## /Library/Developer/CommandLineTools/usr/bin/../include/c++/v1/vector:1650:34
	movl	$1, %edx
	callq	__ZNSt3__16vectorIiNS_9allocatorIiEEE24__RAII_IncreaseAnnotatorC1ERKS3_m
Ltmp85:
	.loc	18 0 34                 ## /Library/Developer/CommandLineTools/usr/bin/../include/c++/v1/vector:0:34
	movq	-32(%rbp), %rax         ## 8-byte Reload
	.loc	18 1651 41 is_stmt 1    ## /Library/Developer/CommandLineTools/usr/bin/../include/c++/v1/vector:1651:41
	movq	%rax, %rdi
	callq	__ZNSt3__113__vector_baseIiNS_9allocatorIiEEE7__allocEv
	movq	-32(%rbp), %rcx         ## 8-byte Reload
	.loc	18 1652 65              ## /Library/Developer/CommandLineTools/usr/bin/../include/c++/v1/vector:1652:65
	movq	8(%rcx), %rdi
	movq	%rax, -48(%rbp)         ## 8-byte Spill
	.loc	18 1652 35 is_stmt 0    ## /Library/Developer/CommandLineTools/usr/bin/../include/c++/v1/vector:1652:35
	callq	__ZNSt3__1L16__to_raw_pointerIiEEPT_S2_
	.loc	18 1653 47 is_stmt 1    ## /Library/Developer/CommandLineTools/usr/bin/../include/c++/v1/vector:1653:47
	movq	-16(%rbp), %rdi
	movq	%rax, -56(%rbp)         ## 8-byte Spill
	.loc	18 1653 35 is_stmt 0    ## /Library/Developer/CommandLineTools/usr/bin/../include/c++/v1/vector:1653:35
	callq	__ZNSt3__1L4moveIRiEEONS_16remove_referenceIT_E4typeEOS3_
	movq	-48(%rbp), %rdi         ## 8-byte Reload
	movq	-56(%rbp), %rsi         ## 8-byte Reload
	.loc	18 1651 9 is_stmt 1     ## /Library/Developer/CommandLineTools/usr/bin/../include/c++/v1/vector:1651:9
	movq	%rax, %rdx
	callq	__ZNSt3__116allocator_traitsINS_9allocatorIiEEE9constructIiJiEEEvRS2_PT_DpOT0_
	.loc	18 1654 21              ## /Library/Developer/CommandLineTools/usr/bin/../include/c++/v1/vector:1654:21
	leaq	-24(%rbp), %rdi
	callq	__ZNSt3__16vectorIiNS_9allocatorIiEEE24__RAII_IncreaseAnnotator6__doneEv
	movq	-32(%rbp), %rax         ## 8-byte Reload
	.loc	18 1655 9               ## /Library/Developer/CommandLineTools/usr/bin/../include/c++/v1/vector:1655:9
	movq	8(%rax), %rcx
	addq	$4, %rcx
	movq	%rcx, 8(%rax)
	.loc	18 1656 5               ## /Library/Developer/CommandLineTools/usr/bin/../include/c++/v1/vector:1656:5
	jmp	LBB5_3
Ltmp86:
LBB5_2:
	.loc	18 1658 43              ## /Library/Developer/CommandLineTools/usr/bin/../include/c++/v1/vector:1658:43
	movq	-16(%rbp), %rdi
	.loc	18 1658 31 is_stmt 0    ## /Library/Developer/CommandLineTools/usr/bin/../include/c++/v1/vector:1658:31
	callq	__ZNSt3__1L4moveIRiEEONS_16remove_referenceIT_E4typeEOS3_
	movq	-32(%rbp), %rdi         ## 8-byte Reload
	.loc	18 1658 9               ## /Library/Developer/CommandLineTools/usr/bin/../include/c++/v1/vector:1658:9
	movq	%rax, %rsi
	callq	__ZNSt3__16vectorIiNS_9allocatorIiEEE21__push_back_slow_pathIiEEvOT_
Ltmp87:
LBB5_3:
	.loc	18 1659 1 is_stmt 1     ## /Library/Developer/CommandLineTools/usr/bin/../include/c++/v1/vector:1659:1
	addq	$64, %rsp
	popq	%rbp
	retq
Ltmp88:
Lfunc_end5:
	.cfi_endproc
                                        ## -- End function
	.p2align	4, 0x90         ## -- Begin function _ZNSt3__16vectorIiNS_9allocatorIiEEE5beginEv
__ZNSt3__16vectorIiNS_9allocatorIiEEE5beginEv: ## @_ZNSt3__16vectorIiNS_9allocatorIiEEE5beginEv
Lfunc_begin6:
	.loc	18 1509 0               ## /Library/Developer/CommandLineTools/usr/bin/../include/c++/v1/vector:1509:0
	.cfi_startproc
## %bb.0:
	pushq	%rbp
	.cfi_def_cfa_offset 16
	.cfi_offset %rbp, -16
	movq	%rsp, %rbp
	.cfi_def_cfa_register %rbp
	subq	$16, %rsp
	movq	%rdi, -16(%rbp)
	movq	-16(%rbp), %rax
Ltmp89:
	.loc	18 1510 30 prologue_end ## /Library/Developer/CommandLineTools/usr/bin/../include/c++/v1/vector:1510:30
	movq	(%rax), %rsi
	.loc	18 1510 12 is_stmt 0    ## /Library/Developer/CommandLineTools/usr/bin/../include/c++/v1/vector:1510:12
	movq	%rax, %rdi
	callq	__ZNSt3__16vectorIiNS_9allocatorIiEEE11__make_iterEPi
	movq	%rax, -8(%rbp)
	.loc	18 1510 5               ## /Library/Developer/CommandLineTools/usr/bin/../include/c++/v1/vector:1510:5
	movq	-8(%rbp), %rax
	addq	$16, %rsp
	popq	%rbp
	retq
Ltmp90:
Lfunc_end6:
	.cfi_endproc
                                        ## -- End function
	.p2align	4, 0x90         ## -- Begin function _ZNSt3__16vectorIiNS_9allocatorIiEEE3endEv
__ZNSt3__16vectorIiNS_9allocatorIiEEE3endEv: ## @_ZNSt3__16vectorIiNS_9allocatorIiEEE3endEv
Lfunc_begin7:
	.loc	18 1525 0 is_stmt 1     ## /Library/Developer/CommandLineTools/usr/bin/../include/c++/v1/vector:1525:0
	.cfi_startproc
## %bb.0:
	pushq	%rbp
	.cfi_def_cfa_offset 16
	.cfi_offset %rbp, -16
	movq	%rsp, %rbp
	.cfi_def_cfa_register %rbp
	subq	$16, %rsp
	movq	%rdi, -16(%rbp)
	movq	-16(%rbp), %rax
Ltmp91:
	.loc	18 1526 30 prologue_end ## /Library/Developer/CommandLineTools/usr/bin/../include/c++/v1/vector:1526:30
	movq	8(%rax), %rsi
	.loc	18 1526 12 is_stmt 0    ## /Library/Developer/CommandLineTools/usr/bin/../include/c++/v1/vector:1526:12
	movq	%rax, %rdi
	callq	__ZNSt3__16vectorIiNS_9allocatorIiEEE11__make_iterEPi
	movq	%rax, -8(%rbp)
	.loc	18 1526 5               ## /Library/Developer/CommandLineTools/usr/bin/../include/c++/v1/vector:1526:5
	movq	-8(%rbp), %rax
	addq	$16, %rsp
	popq	%rbp
	retq
Ltmp92:
Lfunc_end7:
	.cfi_endproc
                                        ## -- End function
	.p2align	4, 0x90         ## -- Begin function _ZNSt3__1neIPiEEbRKNS_11__wrap_iterIT_EES6_
__ZNSt3__1neIPiEEbRKNS_11__wrap_iterIT_EES6_: ## @_ZNSt3__1neIPiEEbRKNS_11__wrap_iterIT_EES6_
Lfunc_begin8:
	.loc	19 1584 0 is_stmt 1     ## /Library/Developer/CommandLineTools/usr/bin/../include/c++/v1/iterator:1584:0
	.cfi_startproc
## %bb.0:
	pushq	%rbp
	.cfi_def_cfa_offset 16
	.cfi_offset %rbp, -16
	movq	%rsp, %rbp
	.cfi_def_cfa_register %rbp
	subq	$16, %rsp
	movq	%rdi, -8(%rbp)
	movq	%rsi, -16(%rbp)
Ltmp93:
	.loc	19 1585 14 prologue_end ## /Library/Developer/CommandLineTools/usr/bin/../include/c++/v1/iterator:1585:14
	movq	-8(%rbp), %rdi
	.loc	19 1585 21 is_stmt 0    ## /Library/Developer/CommandLineTools/usr/bin/../include/c++/v1/iterator:1585:21
	movq	-16(%rbp), %rsi
	.loc	19 1585 18              ## /Library/Developer/CommandLineTools/usr/bin/../include/c++/v1/iterator:1585:18
	callq	__ZNSt3__1eqIPiS1_EEbRKNS_11__wrap_iterIT_EERKNS2_IT0_EE
	.loc	19 1585 12              ## /Library/Developer/CommandLineTools/usr/bin/../include/c++/v1/iterator:1585:12
	xorb	$-1, %al
	.loc	19 1585 5               ## /Library/Developer/CommandLineTools/usr/bin/../include/c++/v1/iterator:1585:5
	andb	$1, %al
	movzbl	%al, %eax
	addq	$16, %rsp
	popq	%rbp
	retq
Ltmp94:
Lfunc_end8:
	.cfi_endproc
                                        ## -- End function
	.p2align	4, 0x90         ## -- Begin function _ZNKSt3__111__wrap_iterIPiEdeEv
__ZNKSt3__111__wrap_iterIPiEdeEv:       ## @_ZNKSt3__111__wrap_iterIPiEdeEv
Lfunc_begin9:
	.loc	19 1375 0 is_stmt 1     ## /Library/Developer/CommandLineTools/usr/bin/../include/c++/v1/iterator:1375:0
	.cfi_startproc
## %bb.0:
	pushq	%rbp
	.cfi_def_cfa_offset 16
	.cfi_offset %rbp, -16
	movq	%rsp, %rbp
	.cfi_def_cfa_register %rbp
	movq	%rdi, -8(%rbp)
	movq	-8(%rbp), %rax
Ltmp95:
	.loc	19 1380 17 prologue_end ## /Library/Developer/CommandLineTools/usr/bin/../include/c++/v1/iterator:1380:17
	movq	(%rax), %rax
	.loc	19 1380 9 is_stmt 0     ## /Library/Developer/CommandLineTools/usr/bin/../include/c++/v1/iterator:1380:9
	popq	%rbp
	retq
Ltmp96:
Lfunc_end9:
	.cfi_endproc
                                        ## -- End function
	.globl	__ZNSt3__1lsINS_11char_traitsIcEEEERNS_13basic_ostreamIcT_EES6_PKc ## -- Begin function _ZNSt3__1lsINS_11char_traitsIcEEEERNS_13basic_ostreamIcT_EES6_PKc
	.weak_definition	__ZNSt3__1lsINS_11char_traitsIcEEEERNS_13basic_ostreamIcT_EES6_PKc
	.p2align	4, 0x90
__ZNSt3__1lsINS_11char_traitsIcEEEERNS_13basic_ostreamIcT_EES6_PKc: ## @_ZNSt3__1lsINS_11char_traitsIcEEEERNS_13basic_ostreamIcT_EES6_PKc
Lfunc_begin10:
	.loc	22 863 0 is_stmt 1      ## /Library/Developer/CommandLineTools/usr/bin/../include/c++/v1/ostream:863:0
	.cfi_startproc
## %bb.0:
	pushq	%rbp
	.cfi_def_cfa_offset 16
	.cfi_offset %rbp, -16
	movq	%rsp, %rbp
	.cfi_def_cfa_register %rbp
	subq	$32, %rsp
	movq	%rdi, -8(%rbp)
	movq	%rsi, -16(%rbp)
Ltmp97:
	.loc	22 864 44 prologue_end  ## /Library/Developer/CommandLineTools/usr/bin/../include/c++/v1/ostream:864:44
	movq	-8(%rbp), %rdi
	.loc	22 864 50 is_stmt 0     ## /Library/Developer/CommandLineTools/usr/bin/../include/c++/v1/ostream:864:50
	movq	-16(%rbp), %rsi
	.loc	22 864 73               ## /Library/Developer/CommandLineTools/usr/bin/../include/c++/v1/ostream:864:73
	movq	-16(%rbp), %rax
	movq	%rdi, -24(%rbp)         ## 8-byte Spill
	.loc	22 864 57               ## /Library/Developer/CommandLineTools/usr/bin/../include/c++/v1/ostream:864:57
	movq	%rax, %rdi
	movq	%rsi, -32(%rbp)         ## 8-byte Spill
	callq	__ZNSt3__111char_traitsIcE6lengthEPKc
	movq	-24(%rbp), %rdi         ## 8-byte Reload
	movq	-32(%rbp), %rsi         ## 8-byte Reload
	.loc	22 864 12               ## /Library/Developer/CommandLineTools/usr/bin/../include/c++/v1/ostream:864:12
	movq	%rax, %rdx
	callq	__ZNSt3__124__put_character_sequenceIcNS_11char_traitsIcEEEERNS_13basic_ostreamIT_T0_EES7_PKS4_m
	.loc	22 864 5                ## /Library/Developer/CommandLineTools/usr/bin/../include/c++/v1/ostream:864:5
	addq	$32, %rsp
	popq	%rbp
	retq
Ltmp98:
Lfunc_end10:
	.cfi_endproc
                                        ## -- End function
	.p2align	4, 0x90         ## -- Begin function _ZNSt3__113basic_ostreamIcNS_11char_traitsIcEEElsEPFRS3_S4_E
__ZNSt3__113basic_ostreamIcNS_11char_traitsIcEEElsEPFRS3_S4_E: ## @_ZNSt3__113basic_ostreamIcNS_11char_traitsIcEEElsEPFRS3_S4_E
Lfunc_begin11:
	.loc	22 195 0 is_stmt 1      ## /Library/Developer/CommandLineTools/usr/bin/../include/c++/v1/ostream:195:0
	.cfi_startproc
## %bb.0:
	pushq	%rbp
	.cfi_def_cfa_offset 16
	.cfi_offset %rbp, -16
	movq	%rsp, %rbp
	.cfi_def_cfa_register %rbp
	subq	$16, %rsp
	movq	%rdi, -8(%rbp)
	movq	%rsi, -16(%rbp)
	movq	-8(%rbp), %rdi
Ltmp99:
	.loc	22 195 14 prologue_end  ## /Library/Developer/CommandLineTools/usr/bin/../include/c++/v1/ostream:195:14
	callq	*-16(%rbp)
	.loc	22 195 7 is_stmt 0      ## /Library/Developer/CommandLineTools/usr/bin/../include/c++/v1/ostream:195:7
	addq	$16, %rsp
	popq	%rbp
	retq
Ltmp100:
Lfunc_end11:
	.cfi_endproc
                                        ## -- End function
	.p2align	4, 0x90         ## -- Begin function _ZNSt3__1L4endlIcNS_11char_traitsIcEEEERNS_13basic_ostreamIT_T0_EES7_
__ZNSt3__1L4endlIcNS_11char_traitsIcEEEERNS_13basic_ostreamIT_T0_EES7_: ## @_ZNSt3__1L4endlIcNS_11char_traitsIcEEEERNS_13basic_ostreamIT_T0_EES7_
Lfunc_begin12:
	.loc	22 1000 0 is_stmt 1     ## /Library/Developer/CommandLineTools/usr/bin/../include/c++/v1/ostream:1000:0
	.cfi_startproc
## %bb.0:
	pushq	%rbp
	.cfi_def_cfa_offset 16
	.cfi_offset %rbp, -16
	movq	%rsp, %rbp
	.cfi_def_cfa_register %rbp
	subq	$32, %rsp
	movq	%rdi, -8(%rbp)
Ltmp101:
	.loc	22 1001 5 prologue_end  ## /Library/Developer/CommandLineTools/usr/bin/../include/c++/v1/ostream:1001:5
	movq	-8(%rbp), %rdi
	.loc	22 1001 14 is_stmt 0    ## /Library/Developer/CommandLineTools/usr/bin/../include/c++/v1/ostream:1001:14
	movq	-8(%rbp), %rax
	movq	(%rax), %rcx
	movq	-24(%rcx), %rcx
	addq	%rcx, %rax
	movq	%rdi, -16(%rbp)         ## 8-byte Spill
	.loc	22 1001 19              ## /Library/Developer/CommandLineTools/usr/bin/../include/c++/v1/ostream:1001:19
	movq	%rax, %rdi
	movl	$10, %esi
	callq	__ZNKSt3__19basic_iosIcNS_11char_traitsIcEEE5widenEc
	movq	-16(%rbp), %rdi         ## 8-byte Reload
	.loc	22 1001 10              ## /Library/Developer/CommandLineTools/usr/bin/../include/c++/v1/ostream:1001:10
	movsbl	%al, %esi
	callq	__ZNSt3__113basic_ostreamIcNS_11char_traitsIcEEE3putEc
	.loc	22 1002 5 is_stmt 1     ## /Library/Developer/CommandLineTools/usr/bin/../include/c++/v1/ostream:1002:5
	movq	-8(%rbp), %rdi
	movq	%rax, -24(%rbp)         ## 8-byte Spill
	.loc	22 1002 10 is_stmt 0    ## /Library/Developer/CommandLineTools/usr/bin/../include/c++/v1/ostream:1002:10
	callq	__ZNSt3__113basic_ostreamIcNS_11char_traitsIcEEE5flushEv
	.loc	22 1003 12 is_stmt 1    ## /Library/Developer/CommandLineTools/usr/bin/../include/c++/v1/ostream:1003:12
	movq	-8(%rbp), %rcx
	movq	%rax, -32(%rbp)         ## 8-byte Spill
	.loc	22 1003 5 is_stmt 0     ## /Library/Developer/CommandLineTools/usr/bin/../include/c++/v1/ostream:1003:5
	movq	%rcx, %rax
	addq	$32, %rsp
	popq	%rbp
	retq
Ltmp102:
Lfunc_end12:
	.cfi_endproc
                                        ## -- End function
	.p2align	4, 0x90         ## -- Begin function _ZNSt3__111__wrap_iterIPiEppEv
__ZNSt3__111__wrap_iterIPiEppEv:        ## @_ZNSt3__111__wrap_iterIPiEppEv
Lfunc_begin13:
	.loc	19 1391 0 is_stmt 1     ## /Library/Developer/CommandLineTools/usr/bin/../include/c++/v1/iterator:1391:0
	.cfi_startproc
## %bb.0:
	pushq	%rbp
	.cfi_def_cfa_offset 16
	.cfi_offset %rbp, -16
	movq	%rsp, %rbp
	.cfi_def_cfa_register %rbp
	movq	%rdi, -8(%rbp)
	movq	-8(%rbp), %rax
Ltmp103:
	.loc	19 1396 9 prologue_end  ## /Library/Developer/CommandLineTools/usr/bin/../include/c++/v1/iterator:1396:9
	movq	(%rax), %rcx
	addq	$4, %rcx
	movq	%rcx, (%rax)
	.loc	19 1397 9               ## /Library/Developer/CommandLineTools/usr/bin/../include/c++/v1/iterator:1397:9
	popq	%rbp
	retq
Ltmp104:
Lfunc_end13:
	.cfi_endproc
                                        ## -- End function
	.p2align	4, 0x90         ## -- Begin function _ZNSt3__16vectorIiNS_9allocatorIiEEE8pop_backEv
__ZNSt3__16vectorIiNS_9allocatorIiEEE8pop_backEv: ## @_ZNSt3__16vectorIiNS_9allocatorIiEEE8pop_backEv
Lfunc_begin14:
	.loc	18 1706 0               ## /Library/Developer/CommandLineTools/usr/bin/../include/c++/v1/vector:1706:0
	.cfi_startproc
## %bb.0:
	pushq	%rbp
	.cfi_def_cfa_offset 16
	.cfi_offset %rbp, -16
	movq	%rsp, %rbp
	.cfi_def_cfa_register %rbp
	subq	$16, %rsp
	movq	%rdi, -8(%rbp)
	movq	-8(%rbp), %rax
Ltmp105:
	.loc	18 1708 35 prologue_end ## /Library/Developer/CommandLineTools/usr/bin/../include/c++/v1/vector:1708:35
	movq	8(%rax), %rcx
	.loc	18 1708 42 is_stmt 0    ## /Library/Developer/CommandLineTools/usr/bin/../include/c++/v1/vector:1708:42
	addq	$-4, %rcx
	.loc	18 1708 11              ## /Library/Developer/CommandLineTools/usr/bin/../include/c++/v1/vector:1708:11
	movq	%rax, %rdi
	movq	%rcx, %rsi
	callq	__ZNSt3__16vectorIiNS_9allocatorIiEEE17__destruct_at_endEPi
	.loc	18 1709 1 is_stmt 1     ## /Library/Developer/CommandLineTools/usr/bin/../include/c++/v1/vector:1709:1
	addq	$16, %rsp
	popq	%rbp
	retq
Ltmp106:
Lfunc_end14:
	.cfi_endproc
                                        ## -- End function
	.p2align	4, 0x90         ## -- Begin function _ZNKSt3__111__wrap_iterIPiEplEl
__ZNKSt3__111__wrap_iterIPiEplEl:       ## @_ZNKSt3__111__wrap_iterIPiEplEl
Lfunc_begin15:
	.loc	19 1414 0               ## /Library/Developer/CommandLineTools/usr/bin/../include/c++/v1/iterator:1414:0
	.cfi_startproc
## %bb.0:
	pushq	%rbp
	.cfi_def_cfa_offset 16
	.cfi_offset %rbp, -16
	movq	%rsp, %rbp
	.cfi_def_cfa_register %rbp
	subq	$32, %rsp
	movq	%rdi, -16(%rbp)
	movq	%rsi, -24(%rbp)
	movq	-16(%rbp), %rax
Ltmp107:
	.loc	19 1414 22 prologue_end ## /Library/Developer/CommandLineTools/usr/bin/../include/c++/v1/iterator:1414:22
	movq	(%rax), %rax
	movq	%rax, -8(%rbp)
	.loc	19 1414 41 is_stmt 0    ## /Library/Developer/CommandLineTools/usr/bin/../include/c++/v1/iterator:1414:41
	movq	-24(%rbp), %rsi
	.loc	19 1414 38              ## /Library/Developer/CommandLineTools/usr/bin/../include/c++/v1/iterator:1414:38
	leaq	-8(%rbp), %rdi
Ltmp108:
	##DEBUG_VALUE: operator+:__w <- [$rdi+0]
	callq	__ZNSt3__111__wrap_iterIPiEpLEl
Ltmp109:
	.loc	19 1414 46              ## /Library/Developer/CommandLineTools/usr/bin/../include/c++/v1/iterator:1414:46
	movq	-8(%rbp), %rcx
	movq	%rax, -32(%rbp)         ## 8-byte Spill
	movq	%rcx, %rax
	addq	$32, %rsp
	popq	%rbp
	retq
Ltmp110:
Lfunc_end15:
	.cfi_endproc
                                        ## -- End function
	.p2align	4, 0x90         ## -- Begin function _ZNSt3__1miIPiS1_EEDTmicldtfp_4baseEcldtfp0_4baseEERKNS_11__wrap_iterIT_EERKNS3_IT0_EE
__ZNSt3__1miIPiS1_EEDTmicldtfp_4baseEcldtfp0_4baseEERKNS_11__wrap_iterIT_EERKNS3_IT0_EE: ## @_ZNSt3__1miIPiS1_EEDTmicldtfp_4baseEcldtfp0_4baseEERKNS_11__wrap_iterIT_EERKNS3_IT0_EE
Lfunc_begin16:
	.loc	19 1618 0 is_stmt 1     ## /Library/Developer/CommandLineTools/usr/bin/../include/c++/v1/iterator:1618:0
	.cfi_startproc
## %bb.0:
	pushq	%rbp
	.cfi_def_cfa_offset 16
	.cfi_offset %rbp, -16
	movq	%rsp, %rbp
	.cfi_def_cfa_register %rbp
	subq	$32, %rsp
	movq	%rdi, -8(%rbp)
	movq	%rsi, -16(%rbp)
Ltmp111:
	.loc	19 1623 12 prologue_end ## /Library/Developer/CommandLineTools/usr/bin/../include/c++/v1/iterator:1623:12
	movq	-8(%rbp), %rdi
	.loc	19 1623 16 is_stmt 0    ## /Library/Developer/CommandLineTools/usr/bin/../include/c++/v1/iterator:1623:16
	callq	__ZNKSt3__111__wrap_iterIPiE4baseEv
	.loc	19 1623 25              ## /Library/Developer/CommandLineTools/usr/bin/../include/c++/v1/iterator:1623:25
	movq	-16(%rbp), %rdi
	movq	%rax, -24(%rbp)         ## 8-byte Spill
	.loc	19 1623 29              ## /Library/Developer/CommandLineTools/usr/bin/../include/c++/v1/iterator:1623:29
	callq	__ZNKSt3__111__wrap_iterIPiE4baseEv
	movq	-24(%rbp), %rcx         ## 8-byte Reload
	.loc	19 1623 23              ## /Library/Developer/CommandLineTools/usr/bin/../include/c++/v1/iterator:1623:23
	subq	%rax, %rcx
	sarq	$2, %rcx
	.loc	19 1623 5               ## /Library/Developer/CommandLineTools/usr/bin/../include/c++/v1/iterator:1623:5
	movq	%rcx, %rax
	addq	$32, %rsp
	popq	%rbp
	retq
Ltmp112:
Lfunc_end16:
	.cfi_endproc
                                        ## -- End function
	.globl	__ZNSt3__16vectorIiNS_9allocatorIiEEEC1EmRKi ## -- Begin function _ZNSt3__16vectorIiNS_9allocatorIiEEEC1EmRKi
	.weak_def_can_be_hidden	__ZNSt3__16vectorIiNS_9allocatorIiEEEC1EmRKi
	.p2align	4, 0x90
__ZNSt3__16vectorIiNS_9allocatorIiEEEC1EmRKi: ## @_ZNSt3__16vectorIiNS_9allocatorIiEEEC1EmRKi
Lfunc_begin17:
	.loc	18 1142 0 is_stmt 1     ## /Library/Developer/CommandLineTools/usr/bin/../include/c++/v1/vector:1142:0
	.cfi_startproc
## %bb.0:
	pushq	%rbp
	.cfi_def_cfa_offset 16
	.cfi_offset %rbp, -16
	movq	%rsp, %rbp
	.cfi_def_cfa_register %rbp
	subq	$32, %rsp
	movq	%rdi, -8(%rbp)
	movq	%rsi, -16(%rbp)
	movq	%rdx, -24(%rbp)
	movq	-8(%rbp), %rdi
Ltmp113:
	.loc	18 1142 1 prologue_end  ## /Library/Developer/CommandLineTools/usr/bin/../include/c++/v1/vector:1142:1
	movq	-16(%rbp), %rsi
	movq	-24(%rbp), %rdx
	callq	__ZNSt3__16vectorIiNS_9allocatorIiEEEC2EmRKi
	.loc	18 1151 1               ## /Library/Developer/CommandLineTools/usr/bin/../include/c++/v1/vector:1151:1
	addq	$32, %rsp
	popq	%rbp
	retq
Ltmp114:
Lfunc_end17:
	.cfi_endproc
                                        ## -- End function
	.p2align	4, 0x90         ## -- Begin function _ZNSt3__111__wrap_iterIPiEC1Ev
__ZNSt3__111__wrap_iterIPiEC1Ev:        ## @_ZNSt3__111__wrap_iterIPiEC1Ev
Lfunc_begin18:
	.loc	19 1337 0               ## /Library/Developer/CommandLineTools/usr/bin/../include/c++/v1/iterator:1337:0
	.cfi_startproc
## %bb.0:
	pushq	%rbp
	.cfi_def_cfa_offset 16
	.cfi_offset %rbp, -16
	movq	%rsp, %rbp
	.cfi_def_cfa_register %rbp
	subq	$16, %rsp
	movq	%rdi, -8(%rbp)
	movq	-8(%rbp), %rdi
Ltmp115:
	.loc	19 1337 5 prologue_end  ## /Library/Developer/CommandLineTools/usr/bin/../include/c++/v1/iterator:1337:5
	callq	__ZNSt3__111__wrap_iterIPiEC2Ev
	.loc	19 1341 5               ## /Library/Developer/CommandLineTools/usr/bin/../include/c++/v1/iterator:1341:5
	addq	$16, %rsp
	popq	%rbp
	retq
Ltmp116:
Lfunc_end18:
	.cfi_endproc
                                        ## -- End function
	.p2align	4, 0x90         ## -- Begin function _ZNSt3__111__wrap_iterIPKiEC1Ev
__ZNSt3__111__wrap_iterIPKiEC1Ev:       ## @_ZNSt3__111__wrap_iterIPKiEC1Ev
Lfunc_begin19:
	.loc	19 1337 0               ## /Library/Developer/CommandLineTools/usr/bin/../include/c++/v1/iterator:1337:0
	.cfi_startproc
## %bb.0:
	pushq	%rbp
	.cfi_def_cfa_offset 16
	.cfi_offset %rbp, -16
	movq	%rsp, %rbp
	.cfi_def_cfa_register %rbp
	subq	$16, %rsp
	movq	%rdi, -8(%rbp)
	movq	-8(%rbp), %rdi
Ltmp117:
	.loc	19 1337 5 prologue_end  ## /Library/Developer/CommandLineTools/usr/bin/../include/c++/v1/iterator:1337:5
	callq	__ZNSt3__111__wrap_iterIPKiEC2Ev
	.loc	19 1341 5               ## /Library/Developer/CommandLineTools/usr/bin/../include/c++/v1/iterator:1341:5
	addq	$16, %rsp
	popq	%rbp
	retq
Ltmp118:
Lfunc_end19:
	.cfi_endproc
                                        ## -- End function
	.p2align	4, 0x90         ## -- Begin function _ZNSt3__111__wrap_iterIPKiEC1IPiEERKNS0_IT_EEPNS_9enable_ifIXsr14is_convertibleIS6_S2_EE5valueEvE4typeE
__ZNSt3__111__wrap_iterIPKiEC1IPiEERKNS0_IT_EEPNS_9enable_ifIXsr14is_convertibleIS6_S2_EE5valueEvE4typeE: ## @_ZNSt3__111__wrap_iterIPKiEC1IPiEERKNS0_IT_EEPNS_9enable_ifIXsr14is_convertibleIS6_S2_EE5valueEvE4typeE
Lfunc_begin20:
	.loc	19 1346 0               ## /Library/Developer/CommandLineTools/usr/bin/../include/c++/v1/iterator:1346:0
	.cfi_startproc
## %bb.0:
	pushq	%rbp
	.cfi_def_cfa_offset 16
	.cfi_offset %rbp, -16
	movq	%rsp, %rbp
	.cfi_def_cfa_register %rbp
	subq	$32, %rsp
	movq	%rdi, -8(%rbp)
	movq	%rsi, -16(%rbp)
	movq	%rdx, -24(%rbp)
	movq	-8(%rbp), %rdi
Ltmp119:
	.loc	19 1346 5 prologue_end  ## /Library/Developer/CommandLineTools/usr/bin/../include/c++/v1/iterator:1346:5
	movq	-16(%rbp), %rsi
	movq	-24(%rbp), %rdx
	callq	__ZNSt3__111__wrap_iterIPKiEC2IPiEERKNS0_IT_EEPNS_9enable_ifIXsr14is_convertibleIS6_S2_EE5valueEvE4typeE
	.loc	19 1350 5               ## /Library/Developer/CommandLineTools/usr/bin/../include/c++/v1/iterator:1350:5
	addq	$32, %rsp
	popq	%rbp
	retq
Ltmp120:
Lfunc_end20:
	.cfi_endproc
                                        ## -- End function
	.p2align	4, 0x90         ## -- Begin function _ZNKSt3__111__wrap_iterIPKiEdeEv
__ZNKSt3__111__wrap_iterIPKiEdeEv:      ## @_ZNKSt3__111__wrap_iterIPKiEdeEv
Lfunc_begin21:
	.loc	19 1375 0               ## /Library/Developer/CommandLineTools/usr/bin/../include/c++/v1/iterator:1375:0
	.cfi_startproc
## %bb.0:
	pushq	%rbp
	.cfi_def_cfa_offset 16
	.cfi_offset %rbp, -16
	movq	%rsp, %rbp
	.cfi_def_cfa_register %rbp
	movq	%rdi, -8(%rbp)
	movq	-8(%rbp), %rax
Ltmp121:
	.loc	19 1380 17 prologue_end ## /Library/Developer/CommandLineTools/usr/bin/../include/c++/v1/iterator:1380:17
	movq	(%rax), %rax
	.loc	19 1380 9 is_stmt 0     ## /Library/Developer/CommandLineTools/usr/bin/../include/c++/v1/iterator:1380:9
	popq	%rbp
	retq
Ltmp122:
Lfunc_end21:
	.cfi_endproc
                                        ## -- End function
	.p2align	4, 0x90         ## -- Begin function _ZNSt3__111__wrap_iterIPiEppEi
__ZNSt3__111__wrap_iterIPiEppEi:        ## @_ZNSt3__111__wrap_iterIPiEppEi
Lfunc_begin22:
	.loc	19 1400 0 is_stmt 1     ## /Library/Developer/CommandLineTools/usr/bin/../include/c++/v1/iterator:1400:0
	.cfi_startproc
## %bb.0:
	pushq	%rbp
	.cfi_def_cfa_offset 16
	.cfi_offset %rbp, -16
	movq	%rsp, %rbp
	.cfi_def_cfa_register %rbp
	subq	$32, %rsp
	movq	%rdi, -16(%rbp)
	movl	%esi, -20(%rbp)
	movq	-16(%rbp), %rax
Ltmp123:
	.loc	19 1400 22 prologue_end ## /Library/Developer/CommandLineTools/usr/bin/../include/c++/v1/iterator:1400:22
	movq	(%rax), %rcx
	movq	%rcx, -8(%rbp)
	.loc	19 1400 36 is_stmt 0    ## /Library/Developer/CommandLineTools/usr/bin/../include/c++/v1/iterator:1400:36
	movq	%rax, %rdi
	callq	__ZNSt3__111__wrap_iterIPiEppEv
	.loc	19 1400 47              ## /Library/Developer/CommandLineTools/usr/bin/../include/c++/v1/iterator:1400:47
	movq	-8(%rbp), %rcx
	movq	%rax, -32(%rbp)         ## 8-byte Spill
	movq	%rcx, %rax
	addq	$32, %rsp
	popq	%rbp
	retq
Ltmp124:
Lfunc_end22:
	.cfi_endproc
                                        ## -- End function
	.p2align	4, 0x90         ## -- Begin function _ZNKSt9type_infoeqERKS_
__ZNKSt9type_infoeqERKS_:               ## @_ZNKSt9type_infoeqERKS_
Lfunc_begin23:
	.file	67 "/Library/Developer/CommandLineTools/usr/bin/../include/c++/v1" "typeinfo"
	.loc	67 306 0 is_stmt 1      ## /Library/Developer/CommandLineTools/usr/bin/../include/c++/v1/typeinfo:306:0
	.cfi_startproc
## %bb.0:
	pushq	%rbp
	.cfi_def_cfa_offset 16
	.cfi_offset %rbp, -16
	movq	%rsp, %rbp
	.cfi_def_cfa_register %rbp
	subq	$48, %rsp
	movq	%rdi, -24(%rbp)
	movq	%rsi, -32(%rbp)
	movq	-24(%rbp), %rax
Ltmp125:
	.loc	67 307 27 prologue_end  ## /Library/Developer/CommandLineTools/usr/bin/../include/c++/v1/typeinfo:307:27
	movq	8(%rax), %rax
	.loc	67 307 40 is_stmt 0     ## /Library/Developer/CommandLineTools/usr/bin/../include/c++/v1/typeinfo:307:40
	movq	-32(%rbp), %rcx
	.loc	67 307 46               ## /Library/Developer/CommandLineTools/usr/bin/../include/c++/v1/typeinfo:307:46
	movq	8(%rcx), %rcx
	movq	%rax, -8(%rbp)
	movq	%rcx, -16(%rbp)
Ltmp126:
	.loc	67 197 14 is_stmt 1     ## /Library/Developer/CommandLineTools/usr/bin/../include/c++/v1/typeinfo:197:14
	movq	-8(%rbp), %rax
	.loc	67 197 20 is_stmt 0     ## /Library/Developer/CommandLineTools/usr/bin/../include/c++/v1/typeinfo:197:20
	cmpq	-16(%rbp), %rax
	.loc	67 197 29               ## /Library/Developer/CommandLineTools/usr/bin/../include/c++/v1/typeinfo:197:29
	movb	$1, %dl
	movb	%dl, -33(%rbp)          ## 1-byte Spill
	je	LBB23_2
## %bb.1:
	.loc	67 197 49               ## /Library/Developer/CommandLineTools/usr/bin/../include/c++/v1/typeinfo:197:49
	movq	-8(%rbp), %rdi
	.loc	67 197 56               ## /Library/Developer/CommandLineTools/usr/bin/../include/c++/v1/typeinfo:197:56
	movq	-16(%rbp), %rsi
	.loc	67 197 32               ## /Library/Developer/CommandLineTools/usr/bin/../include/c++/v1/typeinfo:197:32
	callq	_strcmp
	.loc	67 197 63               ## /Library/Developer/CommandLineTools/usr/bin/../include/c++/v1/typeinfo:197:63
	cmpl	$0, %eax
	sete	%cl
	movb	%cl, -33(%rbp)          ## 1-byte Spill
Ltmp127:
LBB23_2:
	.loc	67 0 63                 ## /Library/Developer/CommandLineTools/usr/bin/../include/c++/v1/typeinfo:0:63
	movb	-33(%rbp), %al          ## 1-byte Reload
	.loc	67 307 7 is_stmt 1      ## /Library/Developer/CommandLineTools/usr/bin/../include/c++/v1/typeinfo:307:7
	andb	$1, %al
	movzbl	%al, %eax
	addq	$48, %rsp
	popq	%rbp
	retq
Ltmp128:
Lfunc_end23:
	.cfi_endproc
                                        ## -- End function
	.p2align	4, 0x90         ## -- Begin function _ZNSt3__16vectorIiNS_9allocatorIiEEED1Ev
__ZNSt3__16vectorIiNS_9allocatorIiEEED1Ev: ## @_ZNSt3__16vectorIiNS_9allocatorIiEEED1Ev
Lfunc_begin24:
	.loc	18 550 0                ## /Library/Developer/CommandLineTools/usr/bin/../include/c++/v1/vector:550:0
	.cfi_startproc
## %bb.0:
	pushq	%rbp
	.cfi_def_cfa_offset 16
	.cfi_offset %rbp, -16
	movq	%rsp, %rbp
	.cfi_def_cfa_register %rbp
	subq	$16, %rsp
	movq	%rdi, -8(%rbp)
	movq	-8(%rbp), %rdi
Ltmp129:
	.loc	18 550 5 prologue_end   ## /Library/Developer/CommandLineTools/usr/bin/../include/c++/v1/vector:550:5
	callq	__ZNSt3__16vectorIiNS_9allocatorIiEEED2Ev
	.loc	18 555 5                ## /Library/Developer/CommandLineTools/usr/bin/../include/c++/v1/vector:555:5
	addq	$16, %rsp
	popq	%rbp
	retq
Ltmp130:
Lfunc_end24:
	.cfi_endproc
                                        ## -- End function
	.p2align	4, 0x90         ## -- Begin function _ZNSt3__16vectorIiNS_9allocatorIiEEEC2ESt16initializer_listIiE
__ZNSt3__16vectorIiNS_9allocatorIiEEEC2ESt16initializer_listIiE: ## @_ZNSt3__16vectorIiNS_9allocatorIiEEEC2ESt16initializer_listIiE
Lfunc_begin25:
	.loc	18 1321 0               ## /Library/Developer/CommandLineTools/usr/bin/../include/c++/v1/vector:1321:0
	.cfi_startproc
	.cfi_personality 155, ___gxx_personality_v0
	.cfi_lsda 16, Lexception1
## %bb.0:
	pushq	%rbp
	.cfi_def_cfa_offset 16
	.cfi_offset %rbp, -16
	movq	%rsp, %rbp
	.cfi_def_cfa_register %rbp
	subq	$80, %rsp
	movq	%rsi, -16(%rbp)
	movq	%rdx, -8(%rbp)
	movq	%rdi, -24(%rbp)
	movq	-24(%rbp), %rax
Ltmp136:
	.loc	18 1321 1 prologue_end  ## /Library/Developer/CommandLineTools/usr/bin/../include/c++/v1/vector:1321:1
	movq	%rax, %rcx
	.loc	18 564 5                ## /Library/Developer/CommandLineTools/usr/bin/../include/c++/v1/vector:564:5
	movq	%rcx, %rdi
	movq	%rax, -48(%rbp)         ## 8-byte Spill
	callq	__ZNSt3__113__vector_baseIiNS_9allocatorIiEEEC2Ev
Ltmp137:
	.loc	18 1325 14              ## /Library/Developer/CommandLineTools/usr/bin/../include/c++/v1/vector:1325:14
	leaq	-16(%rbp), %rdi
	callq	__ZNKSt16initializer_listIiE4sizeEv
	.loc	18 1325 21 is_stmt 0    ## /Library/Developer/CommandLineTools/usr/bin/../include/c++/v1/vector:1325:21
	cmpq	$0, %rax
Ltmp138:
	.loc	18 1325 9               ## /Library/Developer/CommandLineTools/usr/bin/../include/c++/v1/vector:1325:9
	jbe	LBB25_5
## %bb.1:
	.loc	18 0 9                  ## /Library/Developer/CommandLineTools/usr/bin/../include/c++/v1/vector:0:9
	leaq	-16(%rbp), %rdi
Ltmp139:
	.loc	18 1327 26 is_stmt 1    ## /Library/Developer/CommandLineTools/usr/bin/../include/c++/v1/vector:1327:26
	callq	__ZNKSt16initializer_listIiE4sizeEv
Ltmp131:
	movq	-48(%rbp), %rdi         ## 8-byte Reload
	.loc	18 1327 9 is_stmt 0     ## /Library/Developer/CommandLineTools/usr/bin/../include/c++/v1/vector:1327:9
	movq	%rax, %rsi
	callq	__ZNSt3__16vectorIiNS_9allocatorIiEEE11__vallocateEm
Ltmp132:
	jmp	LBB25_2
LBB25_2:
	.loc	18 0 9                  ## /Library/Developer/CommandLineTools/usr/bin/../include/c++/v1/vector:0:9
	leaq	-16(%rbp), %rax
	.loc	18 1328 33 is_stmt 1    ## /Library/Developer/CommandLineTools/usr/bin/../include/c++/v1/vector:1328:33
	movq	%rax, %rdi
	movq	%rax, -56(%rbp)         ## 8-byte Spill
	callq	__ZNKSt16initializer_listIiE5beginEv
	movq	-56(%rbp), %rdi         ## 8-byte Reload
	movq	%rax, -64(%rbp)         ## 8-byte Spill
	.loc	18 1328 47 is_stmt 0    ## /Library/Developer/CommandLineTools/usr/bin/../include/c++/v1/vector:1328:47
	callq	__ZNKSt16initializer_listIiE3endEv
	movq	-56(%rbp), %rdi         ## 8-byte Reload
	movq	%rax, -72(%rbp)         ## 8-byte Spill
	.loc	18 1328 59              ## /Library/Developer/CommandLineTools/usr/bin/../include/c++/v1/vector:1328:59
	callq	__ZNKSt16initializer_listIiE4sizeEv
Ltmp133:
	movq	-48(%rbp), %rdi         ## 8-byte Reload
	movq	-64(%rbp), %rsi         ## 8-byte Reload
	movq	-72(%rbp), %rdx         ## 8-byte Reload
	.loc	18 1328 9               ## /Library/Developer/CommandLineTools/usr/bin/../include/c++/v1/vector:1328:9
	movq	%rax, %rcx
	callq	__ZNSt3__16vectorIiNS_9allocatorIiEEE18__construct_at_endIPKiEENS_9enable_ifIXsr21__is_forward_iteratorIT_EE5valueEvE4typeES8_S8_m
Ltmp134:
	jmp	LBB25_3
LBB25_3:
	.loc	18 1329 5 is_stmt 1     ## /Library/Developer/CommandLineTools/usr/bin/../include/c++/v1/vector:1329:5
	jmp	LBB25_5
LBB25_4:
Ltmp135:
                                        ## kill: def $edx killed $edx killed $rdx
	.loc	18 1330 1               ## /Library/Developer/CommandLineTools/usr/bin/../include/c++/v1/vector:1330:1
	movq	%rax, -32(%rbp)
	movl	%edx, -36(%rbp)
	movq	-48(%rbp), %rax         ## 8-byte Reload
Ltmp140:
	.loc	18 1330 1 is_stmt 0     ## /Library/Developer/CommandLineTools/usr/bin/../include/c++/v1/vector:1330:1
	movq	%rax, %rdi
	callq	__ZNSt3__113__vector_baseIiNS_9allocatorIiEEED2Ev
	jmp	LBB25_6
Ltmp141:
LBB25_5:
	.loc	18 1330 1               ## /Library/Developer/CommandLineTools/usr/bin/../include/c++/v1/vector:1330:1
	addq	$80, %rsp
	popq	%rbp
	retq
LBB25_6:
Ltmp142:
	.loc	18 1330 1               ## /Library/Developer/CommandLineTools/usr/bin/../include/c++/v1/vector:1330:1
	movq	-32(%rbp), %rdi
	callq	__Unwind_Resume
	ud2
Ltmp143:
Lfunc_end25:
	.cfi_endproc
	.section	__TEXT,__gcc_except_tab
	.p2align	2
GCC_except_table25:
Lexception1:
	.byte	255                     ## @LPStart Encoding = omit
	.byte	255                     ## @TType Encoding = omit
	.byte	1                       ## Call site Encoding = uleb128
	.uleb128 Lcst_end1-Lcst_begin1
Lcst_begin1:
	.uleb128 Ltmp131-Lfunc_begin25  ## >> Call Site 1 <<
	.uleb128 Ltmp134-Ltmp131        ##   Call between Ltmp131 and Ltmp134
	.uleb128 Ltmp135-Lfunc_begin25  ##     jumps to Ltmp135
	.byte	0                       ##   On action: cleanup
	.uleb128 Ltmp134-Lfunc_begin25  ## >> Call Site 2 <<
	.uleb128 Lfunc_end25-Ltmp134    ##   Call between Ltmp134 and Lfunc_end25
	.byte	0                       ##     has no landing pad
	.byte	0                       ##   On action: cleanup
Lcst_end1:
	.p2align	2
                                        ## -- End function
	.section	__TEXT,__text,regular,pure_instructions
	.p2align	4, 0x90         ## -- Begin function _ZNSt3__113__vector_baseIiNS_9allocatorIiEEEC2Ev
__ZNSt3__113__vector_baseIiNS_9allocatorIiEEEC2Ev: ## @_ZNSt3__113__vector_baseIiNS_9allocatorIiEEEC2Ev
Lfunc_begin26:
	.loc	18 437 0 is_stmt 1      ## /Library/Developer/CommandLineTools/usr/bin/../include/c++/v1/vector:437:0
	.cfi_startproc
	.cfi_personality 155, ___gxx_personality_v0
	.cfi_lsda 16, Lexception2
## %bb.0:
	pushq	%rbp
	.cfi_def_cfa_offset 16
	.cfi_offset %rbp, -16
	movq	%rsp, %rbp
	.cfi_def_cfa_register %rbp
	subq	$32, %rsp
	movq	%rdi, -8(%rbp)
	movq	-8(%rbp), %rax
Ltmp144:
Ltmp149:
	.loc	18 360 5 prologue_end   ## /Library/Developer/CommandLineTools/usr/bin/../include/c++/v1/vector:360:5
	movq	%rax, %rdi
	movq	%rax, -24(%rbp)         ## 8-byte Spill
	callq	__ZNSt3__120__vector_base_commonILb1EEC2Ev
Ltmp145:
	jmp	LBB26_1
LBB26_1:
	.loc	18 0 5 is_stmt 0        ## /Library/Developer/CommandLineTools/usr/bin/../include/c++/v1/vector:0:5
	movq	-24(%rbp), %rax         ## 8-byte Reload
	.loc	18 434 7 is_stmt 1      ## /Library/Developer/CommandLineTools/usr/bin/../include/c++/v1/vector:434:7
	movq	$0, (%rax)
	.loc	18 435 7                ## /Library/Developer/CommandLineTools/usr/bin/../include/c++/v1/vector:435:7
	movq	$0, 8(%rax)
	.loc	18 436 7                ## /Library/Developer/CommandLineTools/usr/bin/../include/c++/v1/vector:436:7
	addq	$16, %rax
	.loc	18 436 18 is_stmt 0     ## /Library/Developer/CommandLineTools/usr/bin/../include/c++/v1/vector:436:18
	movq	$0, -16(%rbp)
Ltmp146:
	leaq	-16(%rbp), %rsi
	.loc	18 436 7                ## /Library/Developer/CommandLineTools/usr/bin/../include/c++/v1/vector:436:7
	movq	%rax, %rdi
	callq	__ZNSt3__117__compressed_pairIPiNS_9allocatorIiEEEC1IDnLb1EEEOT_
Ltmp147:
	jmp	LBB26_2
LBB26_2:
	.loc	18 438 1 is_stmt 1      ## /Library/Developer/CommandLineTools/usr/bin/../include/c++/v1/vector:438:1
	addq	$32, %rsp
	popq	%rbp
	retq
LBB26_3:
Ltmp148:
	.loc	18 360 5                ## /Library/Developer/CommandLineTools/usr/bin/../include/c++/v1/vector:360:5
	movq	%rax, %rdi
	movq	%rdx, -32(%rbp)         ## 8-byte Spill
	callq	___clang_call_terminate
Ltmp150:
Lfunc_end26:
	.cfi_endproc
	.section	__TEXT,__gcc_except_tab
	.p2align	2
GCC_except_table26:
Lexception2:
	.byte	255                     ## @LPStart Encoding = omit
	.byte	155                     ## @TType Encoding = indirect pcrel sdata4
	.uleb128 Lttbase0-Lttbaseref0
Lttbaseref0:
	.byte	1                       ## Call site Encoding = uleb128
	.uleb128 Lcst_end2-Lcst_begin2
Lcst_begin2:
	.uleb128 Ltmp144-Lfunc_begin26  ## >> Call Site 1 <<
	.uleb128 Ltmp147-Ltmp144        ##   Call between Ltmp144 and Ltmp147
	.uleb128 Ltmp148-Lfunc_begin26  ##     jumps to Ltmp148
	.byte	1                       ##   On action: 1
Lcst_end2:
	.byte	1                       ## >> Action Record 1 <<
                                        ##   Catch TypeInfo 1
	.byte	0                       ##   No further actions
	.p2align	2
                                        ## >> Catch TypeInfos <<
	.long	0                       ## TypeInfo 1
Lttbase0:
	.p2align	2
                                        ## -- End function
	.section	__TEXT,__text,regular,pure_instructions
	.p2align	4, 0x90         ## -- Begin function _ZNKSt16initializer_listIiE4sizeEv
__ZNKSt16initializer_listIiE4sizeEv:    ## @_ZNKSt16initializer_listIiE4sizeEv
Lfunc_begin27:
	.loc	10 84 0                 ## /Library/Developer/CommandLineTools/usr/bin/../include/c++/v1/initializer_list:84:0
	.cfi_startproc
## %bb.0:
	pushq	%rbp
	.cfi_def_cfa_offset 16
	.cfi_offset %rbp, -16
	movq	%rsp, %rbp
	.cfi_def_cfa_register %rbp
	movq	%rdi, -8(%rbp)
	movq	-8(%rbp), %rax
Ltmp151:
	.loc	10 84 47 prologue_end   ## /Library/Developer/CommandLineTools/usr/bin/../include/c++/v1/initializer_list:84:47
	movq	8(%rax), %rax
	.loc	10 84 40 is_stmt 0      ## /Library/Developer/CommandLineTools/usr/bin/../include/c++/v1/initializer_list:84:40
	popq	%rbp
	retq
Ltmp152:
Lfunc_end27:
	.cfi_endproc
                                        ## -- End function
	.globl	__ZNSt3__16vectorIiNS_9allocatorIiEEE11__vallocateEm ## -- Begin function _ZNSt3__16vectorIiNS_9allocatorIiEEE11__vallocateEm
	.weak_definition	__ZNSt3__16vectorIiNS_9allocatorIiEEE11__vallocateEm
	.p2align	4, 0x90
__ZNSt3__16vectorIiNS_9allocatorIiEEE11__vallocateEm: ## @_ZNSt3__16vectorIiNS_9allocatorIiEEE11__vallocateEm
Lfunc_begin28:
	.loc	18 973 0 is_stmt 1      ## /Library/Developer/CommandLineTools/usr/bin/../include/c++/v1/vector:973:0
	.cfi_startproc
## %bb.0:
	pushq	%rbp
	.cfi_def_cfa_offset 16
	.cfi_offset %rbp, -16
	movq	%rsp, %rbp
	.cfi_def_cfa_register %rbp
	subq	$48, %rsp
	movq	%rdi, -8(%rbp)
	movq	%rsi, -16(%rbp)
	movq	-8(%rbp), %rax
Ltmp153:
	.loc	18 974 9 prologue_end   ## /Library/Developer/CommandLineTools/usr/bin/../include/c++/v1/vector:974:9
	movq	-16(%rbp), %rcx
	.loc	18 974 15 is_stmt 0     ## /Library/Developer/CommandLineTools/usr/bin/../include/c++/v1/vector:974:15
	movq	%rax, %rdi
	movq	%rax, -24(%rbp)         ## 8-byte Spill
	movq	%rcx, -32(%rbp)         ## 8-byte Spill
	callq	__ZNKSt3__16vectorIiNS_9allocatorIiEEE8max_sizeEv
	movq	-32(%rbp), %rcx         ## 8-byte Reload
	.loc	18 974 13               ## /Library/Developer/CommandLineTools/usr/bin/../include/c++/v1/vector:974:13
	cmpq	%rax, %rcx
Ltmp154:
	.loc	18 974 9                ## /Library/Developer/CommandLineTools/usr/bin/../include/c++/v1/vector:974:9
	jbe	LBB28_2
## %bb.1:
	.loc	18 0 9                  ## /Library/Developer/CommandLineTools/usr/bin/../include/c++/v1/vector:0:9
	movq	-24(%rbp), %rdi         ## 8-byte Reload
Ltmp155:
	.loc	18 975 15 is_stmt 1     ## /Library/Developer/CommandLineTools/usr/bin/../include/c++/v1/vector:975:15
	callq	__ZNKSt3__120__vector_base_commonILb1EE20__throw_length_errorEv
Ltmp156:
LBB28_2:
	.loc	18 0 15 is_stmt 0       ## /Library/Developer/CommandLineTools/usr/bin/../include/c++/v1/vector:0:15
	movq	-24(%rbp), %rax         ## 8-byte Reload
	.loc	18 976 68 is_stmt 1     ## /Library/Developer/CommandLineTools/usr/bin/../include/c++/v1/vector:976:68
	movq	%rax, %rdi
	callq	__ZNSt3__113__vector_baseIiNS_9allocatorIiEEE7__allocEv
	.loc	18 976 79 is_stmt 0     ## /Library/Developer/CommandLineTools/usr/bin/../include/c++/v1/vector:976:79
	movq	-16(%rbp), %rsi
	.loc	18 976 37               ## /Library/Developer/CommandLineTools/usr/bin/../include/c++/v1/vector:976:37
	movq	%rax, %rdi
	callq	__ZNSt3__116allocator_traitsINS_9allocatorIiEEE8allocateERS2_m
	movq	-24(%rbp), %rcx         ## 8-byte Reload
	.loc	18 976 35               ## /Library/Developer/CommandLineTools/usr/bin/../include/c++/v1/vector:976:35
	movq	%rax, 8(%rcx)
	.loc	18 976 20               ## /Library/Developer/CommandLineTools/usr/bin/../include/c++/v1/vector:976:20
	movq	%rax, (%rcx)
	.loc	18 977 31 is_stmt 1     ## /Library/Developer/CommandLineTools/usr/bin/../include/c++/v1/vector:977:31
	movq	(%rcx), %rax
	.loc	18 977 42 is_stmt 0     ## /Library/Developer/CommandLineTools/usr/bin/../include/c++/v1/vector:977:42
	movq	-16(%rbp), %rdx
	.loc	18 977 40               ## /Library/Developer/CommandLineTools/usr/bin/../include/c++/v1/vector:977:40
	shlq	$2, %rdx
	addq	%rdx, %rax
	.loc	18 977 11               ## /Library/Developer/CommandLineTools/usr/bin/../include/c++/v1/vector:977:11
	movq	%rcx, %rdi
	movq	%rax, -40(%rbp)         ## 8-byte Spill
	callq	__ZNSt3__113__vector_baseIiNS_9allocatorIiEEE9__end_capEv
	xorl	%r8d, %r8d
	movl	%r8d, %esi
	movq	-40(%rbp), %rcx         ## 8-byte Reload
	.loc	18 977 23               ## /Library/Developer/CommandLineTools/usr/bin/../include/c++/v1/vector:977:23
	movq	%rcx, (%rax)
	movq	-24(%rbp), %rdi         ## 8-byte Reload
	.loc	18 978 5 is_stmt 1      ## /Library/Developer/CommandLineTools/usr/bin/../include/c++/v1/vector:978:5
	callq	__ZNKSt3__16vectorIiNS_9allocatorIiEEE14__annotate_newEm
	.loc	18 979 1                ## /Library/Developer/CommandLineTools/usr/bin/../include/c++/v1/vector:979:1
	addq	$48, %rsp
	popq	%rbp
	retq
Ltmp157:
Lfunc_end28:
	.cfi_endproc
                                        ## -- End function
	.globl	__ZNSt3__16vectorIiNS_9allocatorIiEEE18__construct_at_endIPKiEENS_9enable_ifIXsr21__is_forward_iteratorIT_EE5valueEvE4typeES8_S8_m ## -- Begin function _ZNSt3__16vectorIiNS_9allocatorIiEEE18__construct_at_endIPKiEENS_9enable_ifIXsr21__is_forward_iteratorIT_EE5valueEvE4typeES8_S8_m
	.weak_definition	__ZNSt3__16vectorIiNS_9allocatorIiEEE18__construct_at_endIPKiEENS_9enable_ifIXsr21__is_forward_iteratorIT_EE5valueEvE4typeES8_S8_m
	.p2align	4, 0x90
__ZNSt3__16vectorIiNS_9allocatorIiEEE18__construct_at_endIPKiEENS_9enable_ifIXsr21__is_forward_iteratorIT_EE5valueEvE4typeES8_S8_m: ## @_ZNSt3__16vectorIiNS_9allocatorIiEEE18__construct_at_endIPKiEENS_9enable_ifIXsr21__is_forward_iteratorIT_EE5valueEvE4typeES8_S8_m
Lfunc_begin29:
	.loc	18 1066 0               ## /Library/Developer/CommandLineTools/usr/bin/../include/c++/v1/vector:1066:0
	.cfi_startproc
## %bb.0:
	pushq	%rbp
	.cfi_def_cfa_offset 16
	.cfi_offset %rbp, -16
	movq	%rsp, %rbp
	.cfi_def_cfa_register %rbp
	subq	$64, %rsp
	movq	%rdi, -8(%rbp)
	movq	%rsi, -16(%rbp)
	movq	%rdx, -24(%rbp)
	movq	%rcx, -32(%rbp)
	movq	-8(%rbp), %rax
Ltmp158:
	.loc	18 1067 33 prologue_end ## /Library/Developer/CommandLineTools/usr/bin/../include/c++/v1/vector:1067:33
	movq	%rax, %rcx
	movq	%rcx, %rdi
	movq	%rax, -56(%rbp)         ## 8-byte Spill
	callq	__ZNSt3__113__vector_baseIiNS_9allocatorIiEEE7__allocEv
	.loc	18 1067 21 is_stmt 0    ## /Library/Developer/CommandLineTools/usr/bin/../include/c++/v1/vector:1067:21
	movq	%rax, -40(%rbp)
	.loc	18 1068 49 is_stmt 1    ## /Library/Developer/CommandLineTools/usr/bin/../include/c++/v1/vector:1068:49
	movq	-32(%rbp), %rdx
	.loc	18 1068 30 is_stmt 0    ## /Library/Developer/CommandLineTools/usr/bin/../include/c++/v1/vector:1068:30
	leaq	-48(%rbp), %rdi
Ltmp159:
	##DEBUG_VALUE: __construct_at_end<const int *>:__annotator <- [$rdi+0]
	.loc	18 0 30                 ## /Library/Developer/CommandLineTools/usr/bin/../include/c++/v1/vector:0:30
	movq	-56(%rbp), %rsi         ## 8-byte Reload
	.loc	18 1068 30              ## /Library/Developer/CommandLineTools/usr/bin/../include/c++/v1/vector:1068:30
	callq	__ZNSt3__16vectorIiNS_9allocatorIiEEE24__RAII_IncreaseAnnotatorC1ERKS3_m
Ltmp160:
	.loc	18 1069 47 is_stmt 1    ## /Library/Developer/CommandLineTools/usr/bin/../include/c++/v1/vector:1069:47
	movq	-40(%rbp), %rdi
	.loc	18 1069 52 is_stmt 0    ## /Library/Developer/CommandLineTools/usr/bin/../include/c++/v1/vector:1069:52
	movq	-16(%rbp), %rsi
	.loc	18 1069 61              ## /Library/Developer/CommandLineTools/usr/bin/../include/c++/v1/vector:1069:61
	movq	-24(%rbp), %rdx
	movq	-56(%rbp), %rax         ## 8-byte Reload
	.loc	18 1069 75              ## /Library/Developer/CommandLineTools/usr/bin/../include/c++/v1/vector:1069:75
	addq	$8, %rax
	.loc	18 1069 5               ## /Library/Developer/CommandLineTools/usr/bin/../include/c++/v1/vector:1069:5
	movq	%rax, %rcx
	callq	__ZNSt3__116allocator_traitsINS_9allocatorIiEEE25__construct_range_forwardIKiiiiEENS_9enable_ifIXaaaasr31is_trivially_move_constructibleIT0_EE5valuesr7is_sameIT1_T2_EE5valueooL_ZNS_17integral_constantIbLb1EE5valueEEntsr15__has_constructIS2_PS7_RT_EE5valueEvE4typeERS2_PSD_SI_RSC_
	.loc	18 1070 17 is_stmt 1    ## /Library/Developer/CommandLineTools/usr/bin/../include/c++/v1/vector:1070:17
	leaq	-48(%rbp), %rdi
	callq	__ZNSt3__16vectorIiNS_9allocatorIiEEE24__RAII_IncreaseAnnotator6__doneEv
	.loc	18 1071 1               ## /Library/Developer/CommandLineTools/usr/bin/../include/c++/v1/vector:1071:1
	addq	$64, %rsp
	popq	%rbp
	retq
Ltmp161:
Lfunc_end29:
	.cfi_endproc
                                        ## -- End function
	.p2align	4, 0x90         ## -- Begin function _ZNKSt16initializer_listIiE5beginEv
__ZNKSt16initializer_listIiE5beginEv:   ## @_ZNKSt16initializer_listIiE5beginEv
Lfunc_begin30:
	.loc	10 88 0                 ## /Library/Developer/CommandLineTools/usr/bin/../include/c++/v1/initializer_list:88:0
	.cfi_startproc
## %bb.0:
	pushq	%rbp
	.cfi_def_cfa_offset 16
	.cfi_offset %rbp, -16
	movq	%rsp, %rbp
	.cfi_def_cfa_register %rbp
	movq	%rdi, -8(%rbp)
	movq	-8(%rbp), %rax
Ltmp162:
	.loc	10 88 48 prologue_end   ## /Library/Developer/CommandLineTools/usr/bin/../include/c++/v1/initializer_list:88:48
	movq	(%rax), %rax
	.loc	10 88 41 is_stmt 0      ## /Library/Developer/CommandLineTools/usr/bin/../include/c++/v1/initializer_list:88:41
	popq	%rbp
	retq
Ltmp163:
Lfunc_end30:
	.cfi_endproc
                                        ## -- End function
	.p2align	4, 0x90         ## -- Begin function _ZNKSt16initializer_listIiE3endEv
__ZNKSt16initializer_listIiE3endEv:     ## @_ZNKSt16initializer_listIiE3endEv
Lfunc_begin31:
	.loc	10 92 0 is_stmt 1       ## /Library/Developer/CommandLineTools/usr/bin/../include/c++/v1/initializer_list:92:0
	.cfi_startproc
## %bb.0:
	pushq	%rbp
	.cfi_def_cfa_offset 16
	.cfi_offset %rbp, -16
	movq	%rsp, %rbp
	.cfi_def_cfa_register %rbp
	movq	%rdi, -8(%rbp)
	movq	-8(%rbp), %rax
Ltmp164:
	.loc	10 92 48 prologue_end   ## /Library/Developer/CommandLineTools/usr/bin/../include/c++/v1/initializer_list:92:48
	movq	(%rax), %rcx
	.loc	10 92 59 is_stmt 0      ## /Library/Developer/CommandLineTools/usr/bin/../include/c++/v1/initializer_list:92:59
	movq	8(%rax), %rax
	.loc	10 92 57                ## /Library/Developer/CommandLineTools/usr/bin/../include/c++/v1/initializer_list:92:57
	shlq	$2, %rax
	addq	%rax, %rcx
	.loc	10 92 41                ## /Library/Developer/CommandLineTools/usr/bin/../include/c++/v1/initializer_list:92:41
	movq	%rcx, %rax
	popq	%rbp
	retq
Ltmp165:
Lfunc_end31:
	.cfi_endproc
                                        ## -- End function
	.globl	__ZNSt3__113__vector_baseIiNS_9allocatorIiEEED2Ev ## -- Begin function _ZNSt3__113__vector_baseIiNS_9allocatorIiEEED2Ev
	.weak_def_can_be_hidden	__ZNSt3__113__vector_baseIiNS_9allocatorIiEEED2Ev
	.p2align	4, 0x90
__ZNSt3__113__vector_baseIiNS_9allocatorIiEEED2Ev: ## @_ZNSt3__113__vector_baseIiNS_9allocatorIiEEED2Ev
Lfunc_begin32:
	.loc	18 460 0 is_stmt 1      ## /Library/Developer/CommandLineTools/usr/bin/../include/c++/v1/vector:460:0
	.cfi_startproc
## %bb.0:
	pushq	%rbp
	.cfi_def_cfa_offset 16
	.cfi_offset %rbp, -16
	movq	%rsp, %rbp
	.cfi_def_cfa_register %rbp
	subq	$32, %rsp
	movq	%rdi, -8(%rbp)
	movq	-8(%rbp), %rax
Ltmp166:
	.loc	18 461 18 prologue_end  ## /Library/Developer/CommandLineTools/usr/bin/../include/c++/v1/vector:461:18
	cmpq	$0, (%rax)
	movq	%rax, -16(%rbp)         ## 8-byte Spill
Ltmp167:
	.loc	18 461 9 is_stmt 0      ## /Library/Developer/CommandLineTools/usr/bin/../include/c++/v1/vector:461:9
	je	LBB32_2
## %bb.1:
	.loc	18 0 9                  ## /Library/Developer/CommandLineTools/usr/bin/../include/c++/v1/vector:0:9
	movq	-16(%rbp), %rdi         ## 8-byte Reload
Ltmp168:
	.loc	18 463 9 is_stmt 1      ## /Library/Developer/CommandLineTools/usr/bin/../include/c++/v1/vector:463:9
	callq	__ZNSt3__113__vector_baseIiNS_9allocatorIiEEE5clearEv
	movq	-16(%rbp), %rdi         ## 8-byte Reload
	.loc	18 464 36               ## /Library/Developer/CommandLineTools/usr/bin/../include/c++/v1/vector:464:36
	callq	__ZNSt3__113__vector_baseIiNS_9allocatorIiEEE7__allocEv
	movq	-16(%rbp), %rcx         ## 8-byte Reload
	.loc	18 464 47 is_stmt 0     ## /Library/Developer/CommandLineTools/usr/bin/../include/c++/v1/vector:464:47
	movq	(%rcx), %rsi
	.loc	18 464 57               ## /Library/Developer/CommandLineTools/usr/bin/../include/c++/v1/vector:464:57
	movq	%rcx, %rdi
	movq	%rax, -24(%rbp)         ## 8-byte Spill
	movq	%rsi, -32(%rbp)         ## 8-byte Spill
	callq	__ZNKSt3__113__vector_baseIiNS_9allocatorIiEEE8capacityEv
	movq	-24(%rbp), %rdi         ## 8-byte Reload
	movq	-32(%rbp), %rsi         ## 8-byte Reload
	.loc	18 464 9                ## /Library/Developer/CommandLineTools/usr/bin/../include/c++/v1/vector:464:9
	movq	%rax, %rdx
	callq	__ZNSt3__116allocator_traitsINS_9allocatorIiEEE10deallocateERS2_Pim
Ltmp169:
LBB32_2:
	.loc	18 466 1 is_stmt 1      ## /Library/Developer/CommandLineTools/usr/bin/../include/c++/v1/vector:466:1
	addq	$32, %rsp
	popq	%rbp
	retq
Ltmp170:
Lfunc_end32:
	.cfi_endproc
                                        ## -- End function
	.p2align	4, 0x90         ## -- Begin function _ZNSt3__120__vector_base_commonILb1EEC2Ev
__ZNSt3__120__vector_base_commonILb1EEC2Ev: ## @_ZNSt3__120__vector_base_commonILb1EEC2Ev
Lfunc_begin33:
	.loc	18 303 0                ## /Library/Developer/CommandLineTools/usr/bin/../include/c++/v1/vector:303:0
	.cfi_startproc
## %bb.0:
	pushq	%rbp
	.cfi_def_cfa_offset 16
	.cfi_offset %rbp, -16
	movq	%rsp, %rbp
	.cfi_def_cfa_register %rbp
	movq	%rdi, -8(%rbp)
Ltmp171:
	.loc	18 303 55 prologue_end  ## /Library/Developer/CommandLineTools/usr/bin/../include/c++/v1/vector:303:55
	popq	%rbp
	retq
Ltmp172:
Lfunc_end33:
	.cfi_endproc
                                        ## -- End function
	.private_extern	___clang_call_terminate ## -- Begin function __clang_call_terminate
	.globl	___clang_call_terminate
	.weak_definition	___clang_call_terminate
	.p2align	4, 0x90
___clang_call_terminate:                ## @__clang_call_terminate
Lfunc_begin34:
	.cfi_startproc
## %bb.0:
	pushq	%rax
	.cfi_def_cfa_offset 16
	callq	___cxa_begin_catch
	movq	%rax, (%rsp)            ## 8-byte Spill
	callq	__ZSt9terminatev
Lfunc_end34:
	.cfi_endproc
                                        ## -- End function
	.p2align	4, 0x90         ## -- Begin function _ZNSt3__117__compressed_pairIPiNS_9allocatorIiEEEC1IDnLb1EEEOT_
__ZNSt3__117__compressed_pairIPiNS_9allocatorIiEEEC1IDnLb1EEEOT_: ## @_ZNSt3__117__compressed_pairIPiNS_9allocatorIiEEEC1IDnLb1EEEOT_
Lfunc_begin35:
	.loc	8 2240 0                ## /Library/Developer/CommandLineTools/usr/bin/../include/c++/v1/memory:2240:0
	.cfi_startproc
## %bb.0:
	pushq	%rbp
	.cfi_def_cfa_offset 16
	.cfi_offset %rbp, -16
	movq	%rsp, %rbp
	.cfi_def_cfa_register %rbp
	subq	$16, %rsp
	movq	%rdi, -8(%rbp)
	movq	%rsi, -16(%rbp)
	movq	-8(%rbp), %rdi
Ltmp173:
	.loc	8 2240 50 prologue_end  ## /Library/Developer/CommandLineTools/usr/bin/../include/c++/v1/memory:2240:50
	movq	-16(%rbp), %rsi
	callq	__ZNSt3__117__compressed_pairIPiNS_9allocatorIiEEEC2IDnLb1EEEOT_
	.loc	8 2240 51 is_stmt 0     ## /Library/Developer/CommandLineTools/usr/bin/../include/c++/v1/memory:2240:51
	addq	$16, %rsp
	popq	%rbp
	retq
Ltmp174:
Lfunc_end35:
	.cfi_endproc
                                        ## -- End function
	.p2align	4, 0x90         ## -- Begin function _ZNSt3__117__compressed_pairIPiNS_9allocatorIiEEEC2IDnLb1EEEOT_
__ZNSt3__117__compressed_pairIPiNS_9allocatorIiEEEC2IDnLb1EEEOT_: ## @_ZNSt3__117__compressed_pairIPiNS_9allocatorIiEEEC2IDnLb1EEEOT_
Lfunc_begin36:
	.loc	8 2240 0 is_stmt 1      ## /Library/Developer/CommandLineTools/usr/bin/../include/c++/v1/memory:2240:0
	.cfi_startproc
## %bb.0:
	pushq	%rbp
	.cfi_def_cfa_offset 16
	.cfi_offset %rbp, -16
	movq	%rsp, %rbp
	.cfi_def_cfa_register %rbp
	subq	$32, %rsp
	movq	%rdi, -8(%rbp)
	movq	%rsi, -16(%rbp)
	movq	-8(%rbp), %rax
Ltmp175:
	.loc	8 2240 50 prologue_end  ## /Library/Developer/CommandLineTools/usr/bin/../include/c++/v1/memory:2240:50
	movq	%rax, %rcx
	.loc	8 2240 34 is_stmt 0     ## /Library/Developer/CommandLineTools/usr/bin/../include/c++/v1/memory:2240:34
	movq	-16(%rbp), %rdi
	movq	%rax, -24(%rbp)         ## 8-byte Spill
	movq	%rcx, -32(%rbp)         ## 8-byte Spill
	.loc	8 2240 16               ## /Library/Developer/CommandLineTools/usr/bin/../include/c++/v1/memory:2240:16
	callq	__ZNSt3__1L7forwardIDnEEOT_RNS_16remove_referenceIS1_E4typeE
	movq	-32(%rbp), %rdi         ## 8-byte Reload
	.loc	8 2240 9                ## /Library/Developer/CommandLineTools/usr/bin/../include/c++/v1/memory:2240:9
	movq	%rax, %rsi
	callq	__ZNSt3__122__compressed_pair_elemIPiLi0ELb0EEC2IDnvEEOT_
	movq	-24(%rbp), %rax         ## 8-byte Reload
	.loc	8 2240 41               ## /Library/Developer/CommandLineTools/usr/bin/../include/c++/v1/memory:2240:41
	movq	%rax, %rdi
	callq	__ZNSt3__122__compressed_pair_elemINS_9allocatorIiEELi1ELb1EEC2Ev
	.loc	8 2240 51               ## /Library/Developer/CommandLineTools/usr/bin/../include/c++/v1/memory:2240:51
	addq	$32, %rsp
	popq	%rbp
	retq
Ltmp176:
Lfunc_end36:
	.cfi_endproc
                                        ## -- End function
	.p2align	4, 0x90         ## -- Begin function _ZNSt3__1L7forwardIDnEEOT_RNS_16remove_referenceIS1_E4typeE
__ZNSt3__1L7forwardIDnEEOT_RNS_16remove_referenceIS1_E4typeE: ## @_ZNSt3__1L7forwardIDnEEOT_RNS_16remove_referenceIS1_E4typeE
Lfunc_begin37:
	.loc	9 2360 0 is_stmt 1      ## /Library/Developer/CommandLineTools/usr/bin/../include/c++/v1/type_traits:2360:0
	.cfi_startproc
## %bb.0:
	pushq	%rbp
	.cfi_def_cfa_offset 16
	.cfi_offset %rbp, -16
	movq	%rsp, %rbp
	.cfi_def_cfa_register %rbp
	movq	%rdi, -8(%rbp)
Ltmp177:
	.loc	9 2361 31 prologue_end  ## /Library/Developer/CommandLineTools/usr/bin/../include/c++/v1/type_traits:2361:31
	movq	-8(%rbp), %rax
	.loc	9 2361 5 is_stmt 0      ## /Library/Developer/CommandLineTools/usr/bin/../include/c++/v1/type_traits:2361:5
	popq	%rbp
	retq
Ltmp178:
Lfunc_end37:
	.cfi_endproc
                                        ## -- End function
	.p2align	4, 0x90         ## -- Begin function _ZNSt3__122__compressed_pair_elemIPiLi0ELb0EEC2IDnvEEOT_
__ZNSt3__122__compressed_pair_elemIPiLi0ELb0EEC2IDnvEEOT_: ## @_ZNSt3__122__compressed_pair_elemIPiLi0ELb0EEC2IDnvEEOT_
Lfunc_begin38:
	.loc	8 2148 0 is_stmt 1      ## /Library/Developer/CommandLineTools/usr/bin/../include/c++/v1/memory:2148:0
	.cfi_startproc
## %bb.0:
	pushq	%rbp
	.cfi_def_cfa_offset 16
	.cfi_offset %rbp, -16
	movq	%rsp, %rbp
	.cfi_def_cfa_register %rbp
	subq	$32, %rsp
	movq	%rdi, -8(%rbp)
	movq	%rsi, -16(%rbp)
	movq	-8(%rbp), %rax
Ltmp179:
	.loc	8 2147 38 prologue_end  ## /Library/Developer/CommandLineTools/usr/bin/../include/c++/v1/memory:2147:38
	movq	-16(%rbp), %rdi
	movq	%rax, -24(%rbp)         ## 8-byte Spill
	.loc	8 2147 18 is_stmt 0     ## /Library/Developer/CommandLineTools/usr/bin/../include/c++/v1/memory:2147:18
	callq	__ZNSt3__1L7forwardIDnEEOT_RNS_16remove_referenceIS1_E4typeE
	movq	-24(%rbp), %rcx         ## 8-byte Reload
	.loc	8 2147 9                ## /Library/Developer/CommandLineTools/usr/bin/../include/c++/v1/memory:2147:9
	movq	$0, (%rcx)
	.loc	8 2149 5 is_stmt 1      ## /Library/Developer/CommandLineTools/usr/bin/../include/c++/v1/memory:2149:5
	addq	$32, %rsp
	popq	%rbp
	retq
Ltmp180:
Lfunc_end38:
	.cfi_endproc
                                        ## -- End function
	.p2align	4, 0x90         ## -- Begin function _ZNSt3__122__compressed_pair_elemINS_9allocatorIiEELi1ELb1EEC2Ev
__ZNSt3__122__compressed_pair_elemINS_9allocatorIiEELi1ELb1EEC2Ev: ## @_ZNSt3__122__compressed_pair_elemINS_9allocatorIiEELi1ELb1EEC2Ev
Lfunc_begin39:
	.loc	8 2178 0                ## /Library/Developer/CommandLineTools/usr/bin/../include/c++/v1/memory:2178:0
	.cfi_startproc
## %bb.0:
	pushq	%rbp
	.cfi_def_cfa_offset 16
	.cfi_offset %rbp, -16
	movq	%rsp, %rbp
	.cfi_def_cfa_register %rbp
	subq	$16, %rsp
	movq	%rdi, -8(%rbp)
	movq	-8(%rbp), %rax
Ltmp181:
	.loc	8 2178 39 prologue_end  ## /Library/Developer/CommandLineTools/usr/bin/../include/c++/v1/memory:2178:39
	movq	%rax, %rdi
	callq	__ZNSt3__19allocatorIiEC2Ev
	.loc	8 2178 72 is_stmt 0     ## /Library/Developer/CommandLineTools/usr/bin/../include/c++/v1/memory:2178:72
	addq	$16, %rsp
	popq	%rbp
	retq
Ltmp182:
Lfunc_end39:
	.cfi_endproc
                                        ## -- End function
	.p2align	4, 0x90         ## -- Begin function _ZNSt3__19allocatorIiEC2Ev
__ZNSt3__19allocatorIiEC2Ev:            ## @_ZNSt3__19allocatorIiEC2Ev
Lfunc_begin40:
	.loc	8 1797 0 is_stmt 1      ## /Library/Developer/CommandLineTools/usr/bin/../include/c++/v1/memory:1797:0
	.cfi_startproc
## %bb.0:
	pushq	%rbp
	.cfi_def_cfa_offset 16
	.cfi_offset %rbp, -16
	movq	%rsp, %rbp
	.cfi_def_cfa_register %rbp
	movq	%rdi, -8(%rbp)
Ltmp183:
	.loc	8 1797 28 prologue_end  ## /Library/Developer/CommandLineTools/usr/bin/../include/c++/v1/memory:1797:28
	popq	%rbp
	retq
Ltmp184:
Lfunc_end40:
	.cfi_endproc
                                        ## -- End function
	.globl	__ZNKSt3__16vectorIiNS_9allocatorIiEEE8max_sizeEv ## -- Begin function _ZNKSt3__16vectorIiNS_9allocatorIiEEE8max_sizeEv
	.weak_definition	__ZNKSt3__16vectorIiNS_9allocatorIiEEE8max_sizeEv
	.p2align	4, 0x90
__ZNKSt3__16vectorIiNS_9allocatorIiEEE8max_sizeEv: ## @_ZNKSt3__16vectorIiNS_9allocatorIiEEE8max_sizeEv
Lfunc_begin41:
	.loc	18 996 0                ## /Library/Developer/CommandLineTools/usr/bin/../include/c++/v1/vector:996:0
	.cfi_startproc
	.cfi_personality 155, ___gxx_personality_v0
	.cfi_lsda 16, Lexception3
## %bb.0:
	pushq	%rbp
	.cfi_def_cfa_offset 16
	.cfi_offset %rbp, -16
	movq	%rsp, %rbp
	.cfi_def_cfa_register %rbp
	subq	$48, %rsp
	movq	%rdi, -8(%rbp)
	movq	-8(%rbp), %rdi
Ltmp188:
	.loc	18 997 65 prologue_end  ## /Library/Developer/CommandLineTools/usr/bin/../include/c++/v1/vector:997:65
	callq	__ZNKSt3__113__vector_baseIiNS_9allocatorIiEEE7__allocEv
	.loc	18 997 34 is_stmt 0     ## /Library/Developer/CommandLineTools/usr/bin/../include/c++/v1/vector:997:34
	movq	%rax, %rdi
	callq	__ZNSt3__116allocator_traitsINS_9allocatorIiEEE8max_sizeERKS2_
	movq	%rax, -16(%rbp)
	.loc	18 998 34 is_stmt 1     ## /Library/Developer/CommandLineTools/usr/bin/../include/c++/v1/vector:998:34
	callq	__ZNSt3__114numeric_limitsIlE3maxEv
	movq	%rax, -24(%rbp)
Ltmp185:
	leaq	-16(%rbp), %rdi
	leaq	-24(%rbp), %rsi
	.loc	18 997 12               ## /Library/Developer/CommandLineTools/usr/bin/../include/c++/v1/vector:997:12
	callq	__ZNSt3__1L3minImEERKT_S3_S3_
Ltmp186:
	movq	%rax, -32(%rbp)         ## 8-byte Spill
	jmp	LBB41_1
LBB41_1:
	.loc	18 0 12 is_stmt 0       ## /Library/Developer/CommandLineTools/usr/bin/../include/c++/v1/vector:0:12
	movq	-32(%rbp), %rax         ## 8-byte Reload
	.loc	18 997 12               ## /Library/Developer/CommandLineTools/usr/bin/../include/c++/v1/vector:997:12
	movq	(%rax), %rax
	.loc	18 997 5                ## /Library/Developer/CommandLineTools/usr/bin/../include/c++/v1/vector:997:5
	addq	$48, %rsp
	popq	%rbp
	retq
LBB41_2:
Ltmp187:
	.loc	18 997 12               ## /Library/Developer/CommandLineTools/usr/bin/../include/c++/v1/vector:997:12
	movq	%rax, %rdi
	movq	%rdx, -40(%rbp)         ## 8-byte Spill
	callq	___clang_call_terminate
Ltmp189:
Lfunc_end41:
	.cfi_endproc
	.section	__TEXT,__gcc_except_tab
	.p2align	2
GCC_except_table41:
Lexception3:
	.byte	255                     ## @LPStart Encoding = omit
	.byte	155                     ## @TType Encoding = indirect pcrel sdata4
	.uleb128 Lttbase1-Lttbaseref1
Lttbaseref1:
	.byte	1                       ## Call site Encoding = uleb128
	.uleb128 Lcst_end3-Lcst_begin3
Lcst_begin3:
	.uleb128 Ltmp185-Lfunc_begin41  ## >> Call Site 1 <<
	.uleb128 Ltmp186-Ltmp185        ##   Call between Ltmp185 and Ltmp186
	.uleb128 Ltmp187-Lfunc_begin41  ##     jumps to Ltmp187
	.byte	1                       ##   On action: 1
Lcst_end3:
	.byte	1                       ## >> Action Record 1 <<
                                        ##   Catch TypeInfo 1
	.byte	0                       ##   No further actions
	.p2align	2
                                        ## >> Catch TypeInfos <<
	.long	0                       ## TypeInfo 1
Lttbase1:
	.p2align	2
                                        ## -- End function
	.section	__TEXT,__text,regular,pure_instructions
	.p2align	4, 0x90         ## -- Begin function _ZNSt3__116allocator_traitsINS_9allocatorIiEEE8allocateERS2_m
__ZNSt3__116allocator_traitsINS_9allocatorIiEEE8allocateERS2_m: ## @_ZNSt3__116allocator_traitsINS_9allocatorIiEEE8allocateERS2_m
Lfunc_begin42:
	.loc	8 1546 0 is_stmt 1      ## /Library/Developer/CommandLineTools/usr/bin/../include/c++/v1/memory:1546:0
	.cfi_startproc
## %bb.0:
	pushq	%rbp
	.cfi_def_cfa_offset 16
	.cfi_offset %rbp, -16
	movq	%rsp, %rbp
	.cfi_def_cfa_register %rbp
	subq	$16, %rsp
	xorl	%eax, %eax
	movl	%eax, %edx
	movq	%rdi, -8(%rbp)
	movq	%rsi, -16(%rbp)
Ltmp190:
	.loc	8 1546 17 prologue_end  ## /Library/Developer/CommandLineTools/usr/bin/../include/c++/v1/memory:1546:17
	movq	-8(%rbp), %rdi
	.loc	8 1546 30 is_stmt 0     ## /Library/Developer/CommandLineTools/usr/bin/../include/c++/v1/memory:1546:30
	movq	-16(%rbp), %rsi
	.loc	8 1546 21               ## /Library/Developer/CommandLineTools/usr/bin/../include/c++/v1/memory:1546:21
	callq	__ZNSt3__19allocatorIiE8allocateEmPKv
	.loc	8 1546 10               ## /Library/Developer/CommandLineTools/usr/bin/../include/c++/v1/memory:1546:10
	addq	$16, %rsp
	popq	%rbp
	retq
Ltmp191:
Lfunc_end42:
	.cfi_endproc
                                        ## -- End function
	.p2align	4, 0x90         ## -- Begin function _ZNSt3__113__vector_baseIiNS_9allocatorIiEEE7__allocEv
__ZNSt3__113__vector_baseIiNS_9allocatorIiEEE7__allocEv: ## @_ZNSt3__113__vector_baseIiNS_9allocatorIiEEE7__allocEv
Lfunc_begin43:
	.loc	18 348 0 is_stmt 1      ## /Library/Developer/CommandLineTools/usr/bin/../include/c++/v1/vector:348:0
	.cfi_startproc
## %bb.0:
	pushq	%rbp
	.cfi_def_cfa_offset 16
	.cfi_offset %rbp, -16
	movq	%rsp, %rbp
	.cfi_def_cfa_register %rbp
	subq	$16, %rsp
	movq	%rdi, -8(%rbp)
	movq	-8(%rbp), %rax
Ltmp192:
	.loc	18 348 17 prologue_end  ## /Library/Developer/CommandLineTools/usr/bin/../include/c++/v1/vector:348:17
	addq	$16, %rax
	.loc	18 348 28 is_stmt 0     ## /Library/Developer/CommandLineTools/usr/bin/../include/c++/v1/vector:348:28
	movq	%rax, %rdi
	callq	__ZNSt3__117__compressed_pairIPiNS_9allocatorIiEEE6secondEv
	.loc	18 348 10               ## /Library/Developer/CommandLineTools/usr/bin/../include/c++/v1/vector:348:10
	addq	$16, %rsp
	popq	%rbp
	retq
Ltmp193:
Lfunc_end43:
	.cfi_endproc
                                        ## -- End function
	.p2align	4, 0x90         ## -- Begin function _ZNSt3__113__vector_baseIiNS_9allocatorIiEEE9__end_capEv
__ZNSt3__113__vector_baseIiNS_9allocatorIiEEE9__end_capEv: ## @_ZNSt3__113__vector_baseIiNS_9allocatorIiEEE9__end_capEv
Lfunc_begin44:
	.loc	18 354 0 is_stmt 1      ## /Library/Developer/CommandLineTools/usr/bin/../include/c++/v1/vector:354:0
	.cfi_startproc
## %bb.0:
	pushq	%rbp
	.cfi_def_cfa_offset 16
	.cfi_offset %rbp, -16
	movq	%rsp, %rbp
	.cfi_def_cfa_register %rbp
	subq	$16, %rsp
	movq	%rdi, -8(%rbp)
	movq	-8(%rbp), %rax
Ltmp194:
	.loc	18 354 17 prologue_end  ## /Library/Developer/CommandLineTools/usr/bin/../include/c++/v1/vector:354:17
	addq	$16, %rax
	.loc	18 354 28 is_stmt 0     ## /Library/Developer/CommandLineTools/usr/bin/../include/c++/v1/vector:354:28
	movq	%rax, %rdi
	callq	__ZNSt3__117__compressed_pairIPiNS_9allocatorIiEEE5firstEv
	.loc	18 354 10               ## /Library/Developer/CommandLineTools/usr/bin/../include/c++/v1/vector:354:10
	addq	$16, %rsp
	popq	%rbp
	retq
Ltmp195:
Lfunc_end44:
	.cfi_endproc
                                        ## -- End function
	.p2align	4, 0x90         ## -- Begin function _ZNKSt3__16vectorIiNS_9allocatorIiEEE14__annotate_newEm
__ZNKSt3__16vectorIiNS_9allocatorIiEEE14__annotate_newEm: ## @_ZNKSt3__16vectorIiNS_9allocatorIiEEE14__annotate_newEm
Lfunc_begin45:
	.loc	18 865 0 is_stmt 1      ## /Library/Developer/CommandLineTools/usr/bin/../include/c++/v1/vector:865:0
	.cfi_startproc
## %bb.0:
	pushq	%rbp
	.cfi_def_cfa_offset 16
	.cfi_offset %rbp, -16
	movq	%rsp, %rbp
	.cfi_def_cfa_register %rbp
	subq	$64, %rsp
	movq	%rdi, -8(%rbp)
	movq	%rsi, -16(%rbp)
	movq	-8(%rbp), %rax
Ltmp196:
	.loc	18 866 39 prologue_end  ## /Library/Developer/CommandLineTools/usr/bin/../include/c++/v1/vector:866:39
	movq	%rax, %rdi
	movq	%rax, -24(%rbp)         ## 8-byte Spill
	callq	__ZNKSt3__16vectorIiNS_9allocatorIiEEE4dataEv
	movq	-24(%rbp), %rdi         ## 8-byte Reload
	movq	%rax, -32(%rbp)         ## 8-byte Spill
	.loc	18 866 47 is_stmt 0     ## /Library/Developer/CommandLineTools/usr/bin/../include/c++/v1/vector:866:47
	callq	__ZNKSt3__16vectorIiNS_9allocatorIiEEE4dataEv
	movq	-24(%rbp), %rdi         ## 8-byte Reload
	movq	%rax, -40(%rbp)         ## 8-byte Spill
	.loc	18 866 56               ## /Library/Developer/CommandLineTools/usr/bin/../include/c++/v1/vector:866:56
	callq	__ZNKSt3__16vectorIiNS_9allocatorIiEEE8capacityEv
	.loc	18 866 54               ## /Library/Developer/CommandLineTools/usr/bin/../include/c++/v1/vector:866:54
	shlq	$2, %rax
	movq	-40(%rbp), %rcx         ## 8-byte Reload
	addq	%rax, %rcx
	movq	-24(%rbp), %rdi         ## 8-byte Reload
	movq	%rcx, -48(%rbp)         ## 8-byte Spill
	.loc	18 867 39 is_stmt 1     ## /Library/Developer/CommandLineTools/usr/bin/../include/c++/v1/vector:867:39
	callq	__ZNKSt3__16vectorIiNS_9allocatorIiEEE4dataEv
	movq	-24(%rbp), %rdi         ## 8-byte Reload
	movq	%rax, -56(%rbp)         ## 8-byte Spill
	.loc	18 867 48 is_stmt 0     ## /Library/Developer/CommandLineTools/usr/bin/../include/c++/v1/vector:867:48
	callq	__ZNKSt3__16vectorIiNS_9allocatorIiEEE8capacityEv
	.loc	18 867 46               ## /Library/Developer/CommandLineTools/usr/bin/../include/c++/v1/vector:867:46
	shlq	$2, %rax
	movq	-56(%rbp), %rcx         ## 8-byte Reload
	addq	%rax, %rcx
	movq	-24(%rbp), %rdi         ## 8-byte Reload
	movq	%rcx, -64(%rbp)         ## 8-byte Spill
	.loc	18 867 60               ## /Library/Developer/CommandLineTools/usr/bin/../include/c++/v1/vector:867:60
	callq	__ZNKSt3__16vectorIiNS_9allocatorIiEEE4dataEv
	.loc	18 867 69               ## /Library/Developer/CommandLineTools/usr/bin/../include/c++/v1/vector:867:69
	movq	-16(%rbp), %rcx
	.loc	18 867 67               ## /Library/Developer/CommandLineTools/usr/bin/../include/c++/v1/vector:867:67
	shlq	$2, %rcx
	addq	%rcx, %rax
	movq	-24(%rbp), %rdi         ## 8-byte Reload
	movq	-32(%rbp), %rsi         ## 8-byte Reload
	movq	-48(%rbp), %rdx         ## 8-byte Reload
	movq	-64(%rbp), %rcx         ## 8-byte Reload
	.loc	18 866 7 is_stmt 1      ## /Library/Developer/CommandLineTools/usr/bin/../include/c++/v1/vector:866:7
	movq	%rax, %r8
	callq	__ZNKSt3__16vectorIiNS_9allocatorIiEEE31__annotate_contiguous_containerEPKvS5_S5_S5_
	.loc	18 868 5                ## /Library/Developer/CommandLineTools/usr/bin/../include/c++/v1/vector:868:5
	addq	$64, %rsp
	popq	%rbp
	retq
Ltmp197:
Lfunc_end45:
	.cfi_endproc
                                        ## -- End function
	.p2align	4, 0x90         ## -- Begin function _ZNSt3__1L3minImEERKT_S3_S3_
__ZNSt3__1L3minImEERKT_S3_S3_:          ## @_ZNSt3__1L3minImEERKT_S3_S3_
Lfunc_begin46:
	.file	68 "/Library/Developer/CommandLineTools/usr/bin/../include/c++/v1" "algorithm"
	.loc	68 2533 0               ## /Library/Developer/CommandLineTools/usr/bin/../include/c++/v1/algorithm:2533:0
	.cfi_startproc
## %bb.0:
	pushq	%rbp
	.cfi_def_cfa_offset 16
	.cfi_offset %rbp, -16
	movq	%rsp, %rbp
	.cfi_def_cfa_register %rbp
	subq	$32, %rsp
	movq	%rdi, -8(%rbp)
	movq	%rsi, -16(%rbp)
Ltmp198:
	.loc	68 2534 23 prologue_end ## /Library/Developer/CommandLineTools/usr/bin/../include/c++/v1/algorithm:2534:23
	movq	-8(%rbp), %rdi
	.loc	68 2534 28 is_stmt 0    ## /Library/Developer/CommandLineTools/usr/bin/../include/c++/v1/algorithm:2534:28
	movq	-16(%rbp), %rsi
	.loc	68 2534 12              ## /Library/Developer/CommandLineTools/usr/bin/../include/c++/v1/algorithm:2534:12
	callq	__ZNSt3__1L3minImNS_6__lessImmEEEERKT_S5_S5_T0_
	.loc	68 2534 5               ## /Library/Developer/CommandLineTools/usr/bin/../include/c++/v1/algorithm:2534:5
	addq	$32, %rsp
	popq	%rbp
	retq
Ltmp199:
Lfunc_end46:
	.cfi_endproc
                                        ## -- End function
	.p2align	4, 0x90         ## -- Begin function _ZNSt3__116allocator_traitsINS_9allocatorIiEEE8max_sizeERKS2_
__ZNSt3__116allocator_traitsINS_9allocatorIiEEE8max_sizeERKS2_: ## @_ZNSt3__116allocator_traitsINS_9allocatorIiEEE8max_sizeERKS2_
Lfunc_begin47:
	.loc	8 1599 0 is_stmt 1      ## /Library/Developer/CommandLineTools/usr/bin/../include/c++/v1/memory:1599:0
	.cfi_startproc
## %bb.0:
	pushq	%rbp
	.cfi_def_cfa_offset 16
	.cfi_offset %rbp, -16
	movq	%rsp, %rbp
	.cfi_def_cfa_register %rbp
	subq	$32, %rsp
	movq	%rdi, -8(%rbp)
Ltmp200:
	.loc	8 1599 68 prologue_end  ## /Library/Developer/CommandLineTools/usr/bin/../include/c++/v1/memory:1599:68
	movq	-8(%rbp), %rdi
	.loc	8 1599 17 is_stmt 0     ## /Library/Developer/CommandLineTools/usr/bin/../include/c++/v1/memory:1599:17
	callq	__ZNSt3__116allocator_traitsINS_9allocatorIiEEE10__max_sizeENS_17integral_constantIbLb1EEERKS2_
	.loc	8 1599 10               ## /Library/Developer/CommandLineTools/usr/bin/../include/c++/v1/memory:1599:10
	addq	$32, %rsp
	popq	%rbp
	retq
Ltmp201:
Lfunc_end47:
	.cfi_endproc
                                        ## -- End function
	.p2align	4, 0x90         ## -- Begin function _ZNKSt3__113__vector_baseIiNS_9allocatorIiEEE7__allocEv
__ZNKSt3__113__vector_baseIiNS_9allocatorIiEEE7__allocEv: ## @_ZNKSt3__113__vector_baseIiNS_9allocatorIiEEE7__allocEv
Lfunc_begin48:
	.loc	18 351 0 is_stmt 1      ## /Library/Developer/CommandLineTools/usr/bin/../include/c++/v1/vector:351:0
	.cfi_startproc
## %bb.0:
	pushq	%rbp
	.cfi_def_cfa_offset 16
	.cfi_offset %rbp, -16
	movq	%rsp, %rbp
	.cfi_def_cfa_register %rbp
	subq	$16, %rsp
	movq	%rdi, -8(%rbp)
	movq	-8(%rbp), %rax
Ltmp202:
	.loc	18 351 17 prologue_end  ## /Library/Developer/CommandLineTools/usr/bin/../include/c++/v1/vector:351:17
	addq	$16, %rax
	.loc	18 351 28 is_stmt 0     ## /Library/Developer/CommandLineTools/usr/bin/../include/c++/v1/vector:351:28
	movq	%rax, %rdi
	callq	__ZNKSt3__117__compressed_pairIPiNS_9allocatorIiEEE6secondEv
	.loc	18 351 10               ## /Library/Developer/CommandLineTools/usr/bin/../include/c++/v1/vector:351:10
	addq	$16, %rsp
	popq	%rbp
	retq
Ltmp203:
Lfunc_end48:
	.cfi_endproc
                                        ## -- End function
	.p2align	4, 0x90         ## -- Begin function _ZNSt3__114numeric_limitsIlE3maxEv
__ZNSt3__114numeric_limitsIlE3maxEv:    ## @_ZNSt3__114numeric_limitsIlE3maxEv
Lfunc_begin49:
	.loc	1 451 0 is_stmt 1       ## /Library/Developer/CommandLineTools/usr/bin/../include/c++/v1/limits:451:0
	.cfi_startproc
## %bb.0:
	pushq	%rbp
	.cfi_def_cfa_offset 16
	.cfi_offset %rbp, -16
	movq	%rsp, %rbp
	.cfi_def_cfa_register %rbp
Ltmp204:
	.loc	1 451 85 prologue_end   ## /Library/Developer/CommandLineTools/usr/bin/../include/c++/v1/limits:451:85
	callq	__ZNSt3__123__libcpp_numeric_limitsIlLb1EE3maxEv
	.loc	1 451 78 is_stmt 0      ## /Library/Developer/CommandLineTools/usr/bin/../include/c++/v1/limits:451:78
	popq	%rbp
	retq
Ltmp205:
Lfunc_end49:
	.cfi_endproc
                                        ## -- End function
	.p2align	4, 0x90         ## -- Begin function _ZNSt3__1L3minImNS_6__lessImmEEEERKT_S5_S5_T0_
__ZNSt3__1L3minImNS_6__lessImmEEEERKT_S5_S5_T0_: ## @_ZNSt3__1L3minImNS_6__lessImmEEEERKT_S5_S5_T0_
Lfunc_begin50:
	.loc	68 2524 0 is_stmt 1     ## /Library/Developer/CommandLineTools/usr/bin/../include/c++/v1/algorithm:2524:0
	.cfi_startproc
## %bb.0:
	pushq	%rbp
	.cfi_def_cfa_offset 16
	.cfi_offset %rbp, -16
	movq	%rsp, %rbp
	.cfi_def_cfa_register %rbp
	subq	$32, %rsp
	movq	%rdi, -16(%rbp)
	movq	%rsi, -24(%rbp)
Ltmp206:
	.loc	68 2525 19 prologue_end ## /Library/Developer/CommandLineTools/usr/bin/../include/c++/v1/algorithm:2525:19
	movq	-24(%rbp), %rsi
	.loc	68 2525 24 is_stmt 0    ## /Library/Developer/CommandLineTools/usr/bin/../include/c++/v1/algorithm:2525:24
	movq	-16(%rbp), %rdx
	.loc	68 2525 12              ## /Library/Developer/CommandLineTools/usr/bin/../include/c++/v1/algorithm:2525:12
	leaq	-8(%rbp), %rdi
Ltmp207:
	##DEBUG_VALUE: min<unsigned long, std::__1::__less<unsigned long, unsigned long> >:__comp <- [$rdi+0]
	callq	__ZNKSt3__16__lessImmEclERKmS3_
Ltmp208:
	testb	$1, %al
	jne	LBB50_1
	jmp	LBB50_2
LBB50_1:
	.loc	68 2525 31              ## /Library/Developer/CommandLineTools/usr/bin/../include/c++/v1/algorithm:2525:31
	movq	-24(%rbp), %rax
	movq	%rax, -32(%rbp)         ## 8-byte Spill
	.loc	68 2525 12              ## /Library/Developer/CommandLineTools/usr/bin/../include/c++/v1/algorithm:2525:12
	jmp	LBB50_3
LBB50_2:
	.loc	68 2525 37              ## /Library/Developer/CommandLineTools/usr/bin/../include/c++/v1/algorithm:2525:37
	movq	-16(%rbp), %rax
	movq	%rax, -32(%rbp)         ## 8-byte Spill
LBB50_3:
	.loc	68 0 37                 ## /Library/Developer/CommandLineTools/usr/bin/../include/c++/v1/algorithm:0:37
	movq	-32(%rbp), %rax         ## 8-byte Reload
	.loc	68 2525 5               ## /Library/Developer/CommandLineTools/usr/bin/../include/c++/v1/algorithm:2525:5
	addq	$32, %rsp
	popq	%rbp
	retq
Ltmp209:
Lfunc_end50:
	.cfi_endproc
                                        ## -- End function
	.p2align	4, 0x90         ## -- Begin function _ZNKSt3__16__lessImmEclERKmS3_
__ZNKSt3__16__lessImmEclERKmS3_:        ## @_ZNKSt3__16__lessImmEclERKmS3_
Lfunc_begin51:
	.loc	68 715 0 is_stmt 1      ## /Library/Developer/CommandLineTools/usr/bin/../include/c++/v1/algorithm:715:0
	.cfi_startproc
## %bb.0:
	pushq	%rbp
	.cfi_def_cfa_offset 16
	.cfi_offset %rbp, -16
	movq	%rsp, %rbp
	.cfi_def_cfa_register %rbp
	movq	%rdi, -8(%rbp)
	movq	%rsi, -16(%rbp)
	movq	%rdx, -24(%rbp)
Ltmp210:
	.loc	68 715 67 prologue_end  ## /Library/Developer/CommandLineTools/usr/bin/../include/c++/v1/algorithm:715:67
	movq	-16(%rbp), %rax
	movq	(%rax), %rax
	.loc	68 715 73 is_stmt 0     ## /Library/Developer/CommandLineTools/usr/bin/../include/c++/v1/algorithm:715:73
	movq	-24(%rbp), %rcx
	.loc	68 715 71               ## /Library/Developer/CommandLineTools/usr/bin/../include/c++/v1/algorithm:715:71
	cmpq	(%rcx), %rax
	setb	%r8b
	.loc	68 715 60               ## /Library/Developer/CommandLineTools/usr/bin/../include/c++/v1/algorithm:715:60
	andb	$1, %r8b
	movzbl	%r8b, %eax
	popq	%rbp
	retq
Ltmp211:
Lfunc_end51:
	.cfi_endproc
                                        ## -- End function
	.p2align	4, 0x90         ## -- Begin function _ZNSt3__116allocator_traitsINS_9allocatorIiEEE10__max_sizeENS_17integral_constantIbLb1EEERKS2_
__ZNSt3__116allocator_traitsINS_9allocatorIiEEE10__max_sizeENS_17integral_constantIbLb1EEERKS2_: ## @_ZNSt3__116allocator_traitsINS_9allocatorIiEEE10__max_sizeENS_17integral_constantIbLb1EEERKS2_
Lfunc_begin52:
	.loc	8 1752 0 is_stmt 1      ## /Library/Developer/CommandLineTools/usr/bin/../include/c++/v1/memory:1752:0
	.cfi_startproc
## %bb.0:
	pushq	%rbp
	.cfi_def_cfa_offset 16
	.cfi_offset %rbp, -16
	movq	%rsp, %rbp
	.cfi_def_cfa_register %rbp
	subq	$16, %rsp
	movq	%rdi, -16(%rbp)
Ltmp212:
	.loc	8 1752 21 prologue_end  ## /Library/Developer/CommandLineTools/usr/bin/../include/c++/v1/memory:1752:21
	movq	-16(%rbp), %rdi
	.loc	8 1752 25 is_stmt 0     ## /Library/Developer/CommandLineTools/usr/bin/../include/c++/v1/memory:1752:25
	callq	__ZNKSt3__19allocatorIiE8max_sizeEv
	.loc	8 1752 14               ## /Library/Developer/CommandLineTools/usr/bin/../include/c++/v1/memory:1752:14
	addq	$16, %rsp
	popq	%rbp
	retq
Ltmp213:
Lfunc_end52:
	.cfi_endproc
                                        ## -- End function
	.p2align	4, 0x90         ## -- Begin function _ZNKSt3__19allocatorIiE8max_sizeEv
__ZNKSt3__19allocatorIiE8max_sizeEv:    ## @_ZNKSt3__19allocatorIiE8max_sizeEv
Lfunc_begin53:
	.loc	8 1818 0 is_stmt 1      ## /Library/Developer/CommandLineTools/usr/bin/../include/c++/v1/memory:1818:0
	.cfi_startproc
## %bb.0:
	pushq	%rbp
	.cfi_def_cfa_offset 16
	.cfi_offset %rbp, -16
	movq	%rsp, %rbp
	.cfi_def_cfa_register %rbp
	movq	%rdi, -8(%rbp)
Ltmp214:
	.loc	8 1818 10 prologue_end  ## /Library/Developer/CommandLineTools/usr/bin/../include/c++/v1/memory:1818:10
	movabsq	$4611686018427387903, %rax ## imm = 0x3FFFFFFFFFFFFFFF
	popq	%rbp
	retq
Ltmp215:
Lfunc_end53:
	.cfi_endproc
                                        ## -- End function
	.p2align	4, 0x90         ## -- Begin function _ZNKSt3__117__compressed_pairIPiNS_9allocatorIiEEE6secondEv
__ZNKSt3__117__compressed_pairIPiNS_9allocatorIiEEE6secondEv: ## @_ZNKSt3__117__compressed_pairIPiNS_9allocatorIiEEE6secondEv
Lfunc_begin54:
	.loc	8 2293 0                ## /Library/Developer/CommandLineTools/usr/bin/../include/c++/v1/memory:2293:0
	.cfi_startproc
## %bb.0:
	pushq	%rbp
	.cfi_def_cfa_offset 16
	.cfi_offset %rbp, -16
	movq	%rsp, %rbp
	.cfi_def_cfa_register %rbp
	subq	$16, %rsp
	movq	%rdi, -8(%rbp)
	movq	-8(%rbp), %rax
Ltmp216:
	.loc	8 2294 46 prologue_end  ## /Library/Developer/CommandLineTools/usr/bin/../include/c++/v1/memory:2294:46
	movq	%rax, %rdi
	callq	__ZNKSt3__122__compressed_pair_elemINS_9allocatorIiEELi1ELb1EE5__getEv
	.loc	8 2294 5 is_stmt 0      ## /Library/Developer/CommandLineTools/usr/bin/../include/c++/v1/memory:2294:5
	addq	$16, %rsp
	popq	%rbp
	retq
Ltmp217:
Lfunc_end54:
	.cfi_endproc
                                        ## -- End function
	.p2align	4, 0x90         ## -- Begin function _ZNKSt3__122__compressed_pair_elemINS_9allocatorIiEELi1ELb1EE5__getEv
__ZNKSt3__122__compressed_pair_elemINS_9allocatorIiEELi1ELb1EE5__getEv: ## @_ZNKSt3__122__compressed_pair_elemINS_9allocatorIiEELi1ELb1EE5__getEv
Lfunc_begin55:
	.loc	8 2203 0 is_stmt 1      ## /Library/Developer/CommandLineTools/usr/bin/../include/c++/v1/memory:2203:0
	.cfi_startproc
## %bb.0:
	pushq	%rbp
	.cfi_def_cfa_offset 16
	.cfi_offset %rbp, -16
	movq	%rsp, %rbp
	.cfi_def_cfa_register %rbp
	movq	%rdi, -8(%rbp)
	movq	-8(%rbp), %rax
Ltmp218:
	.loc	8 2203 45 prologue_end  ## /Library/Developer/CommandLineTools/usr/bin/../include/c++/v1/memory:2203:45
	popq	%rbp
	retq
Ltmp219:
Lfunc_end55:
	.cfi_endproc
                                        ## -- End function
	.p2align	4, 0x90         ## -- Begin function _ZNSt3__123__libcpp_numeric_limitsIlLb1EE3maxEv
__ZNSt3__123__libcpp_numeric_limitsIlLb1EE3maxEv: ## @_ZNSt3__123__libcpp_numeric_limitsIlLb1EE3maxEv
Lfunc_begin56:
	.loc	1 214 0                 ## /Library/Developer/CommandLineTools/usr/bin/../include/c++/v1/limits:214:0
	.cfi_startproc
## %bb.0:
	pushq	%rbp
	.cfi_def_cfa_offset 16
	.cfi_offset %rbp, -16
	movq	%rsp, %rbp
	.cfi_def_cfa_register %rbp
Ltmp220:
	.loc	1 214 78 prologue_end   ## /Library/Developer/CommandLineTools/usr/bin/../include/c++/v1/limits:214:78
	movabsq	$9223372036854775807, %rax ## imm = 0x7FFFFFFFFFFFFFFF
	popq	%rbp
	retq
Ltmp221:
Lfunc_end56:
	.cfi_endproc
                                        ## -- End function
	.p2align	4, 0x90         ## -- Begin function _ZNSt3__19allocatorIiE8allocateEmPKv
__ZNSt3__19allocatorIiE8allocateEmPKv:  ## @_ZNSt3__19allocatorIiE8allocateEmPKv
Lfunc_begin57:
	.loc	8 1809 0                ## /Library/Developer/CommandLineTools/usr/bin/../include/c++/v1/memory:1809:0
	.cfi_startproc
## %bb.0:
	pushq	%rbp
	.cfi_def_cfa_offset 16
	.cfi_offset %rbp, -16
	movq	%rsp, %rbp
	.cfi_def_cfa_register %rbp
	subq	$32, %rsp
	movq	%rdi, -8(%rbp)
	movq	%rsi, -16(%rbp)
	movq	%rdx, -24(%rbp)
	movq	-8(%rbp), %rdi
Ltmp222:
	.loc	8 1810 13 prologue_end  ## /Library/Developer/CommandLineTools/usr/bin/../include/c++/v1/memory:1810:13
	movq	-16(%rbp), %rax
	movq	%rax, -32(%rbp)         ## 8-byte Spill
	.loc	8 1810 19 is_stmt 0     ## /Library/Developer/CommandLineTools/usr/bin/../include/c++/v1/memory:1810:19
	callq	__ZNKSt3__19allocatorIiE8max_sizeEv
	movq	-32(%rbp), %rcx         ## 8-byte Reload
	.loc	8 1810 17               ## /Library/Developer/CommandLineTools/usr/bin/../include/c++/v1/memory:1810:17
	cmpq	%rax, %rcx
Ltmp223:
	.loc	8 1810 13               ## /Library/Developer/CommandLineTools/usr/bin/../include/c++/v1/memory:1810:13
	jbe	LBB57_2
## %bb.1:
Ltmp224:
	.loc	8 1811 13 is_stmt 1     ## /Library/Developer/CommandLineTools/usr/bin/../include/c++/v1/memory:1811:13
	leaq	L_.str.3(%rip), %rdi
	callq	__ZNSt3__1L20__throw_length_errorEPKc
Ltmp225:
LBB57_2:
	.loc	8 1813 62               ## /Library/Developer/CommandLineTools/usr/bin/../include/c++/v1/memory:1813:62
	movq	-16(%rbp), %rax
	.loc	8 1813 66 is_stmt 0     ## /Library/Developer/CommandLineTools/usr/bin/../include/c++/v1/memory:1813:66
	shlq	$2, %rax
	.loc	8 1813 37               ## /Library/Developer/CommandLineTools/usr/bin/../include/c++/v1/memory:1813:37
	movq	%rax, %rdi
	movl	$4, %esi
	callq	__ZNSt3__1L17__libcpp_allocateEmm
	.loc	8 1813 9                ## /Library/Developer/CommandLineTools/usr/bin/../include/c++/v1/memory:1813:9
	addq	$32, %rsp
	popq	%rbp
	retq
Ltmp226:
Lfunc_end57:
	.cfi_endproc
                                        ## -- End function
	.p2align	4, 0x90         ## -- Begin function _ZNSt3__1L20__throw_length_errorEPKc
__ZNSt3__1L20__throw_length_errorEPKc:  ## @_ZNSt3__1L20__throw_length_errorEPKc
Lfunc_begin58:
	.loc	17 249 0 is_stmt 1      ## /Library/Developer/CommandLineTools/usr/bin/../include/c++/v1/stdexcept:249:0
	.cfi_startproc
	.cfi_personality 155, ___gxx_personality_v0
	.cfi_lsda 16, Lexception4
## %bb.0:
	pushq	%rbp
	.cfi_def_cfa_offset 16
	.cfi_offset %rbp, -16
	movq	%rsp, %rbp
	.cfi_def_cfa_register %rbp
	subq	$32, %rsp
	movq	%rdi, -8(%rbp)
	movl	$16, %edi
Ltmp230:
	.loc	17 251 5 prologue_end   ## /Library/Developer/CommandLineTools/usr/bin/../include/c++/v1/stdexcept:251:5
	callq	___cxa_allocate_exception
	movq	%rax, %rcx
	.loc	17 251 24 is_stmt 0     ## /Library/Developer/CommandLineTools/usr/bin/../include/c++/v1/stdexcept:251:24
	movq	-8(%rbp), %rsi
Ltmp227:
	.loc	17 251 11               ## /Library/Developer/CommandLineTools/usr/bin/../include/c++/v1/stdexcept:251:11
	movq	%rax, %rdi
	movq	%rcx, -32(%rbp)         ## 8-byte Spill
	callq	__ZNSt12length_errorC1EPKc
Ltmp228:
	jmp	LBB58_1
LBB58_1:
	.loc	17 251 5                ## /Library/Developer/CommandLineTools/usr/bin/../include/c++/v1/stdexcept:251:5
	movq	__ZTISt12length_error@GOTPCREL(%rip), %rsi
	movq	__ZNSt12length_errorD1Ev@GOTPCREL(%rip), %rdx
	movq	-32(%rbp), %rdi         ## 8-byte Reload
	callq	___cxa_throw
LBB58_2:
Ltmp229:
                                        ## kill: def $edx killed $edx killed $rdx
	.loc	17 256 1 is_stmt 1      ## /Library/Developer/CommandLineTools/usr/bin/../include/c++/v1/stdexcept:256:1
	movq	%rax, -16(%rbp)
	movl	%edx, -20(%rbp)
	movq	-32(%rbp), %rdi         ## 8-byte Reload
	.loc	17 251 5                ## /Library/Developer/CommandLineTools/usr/bin/../include/c++/v1/stdexcept:251:5
	callq	___cxa_free_exception
## %bb.3:
	movq	-16(%rbp), %rdi
	callq	__Unwind_Resume
	ud2
Ltmp231:
Lfunc_end58:
	.cfi_endproc
	.section	__TEXT,__gcc_except_tab
	.p2align	2
GCC_except_table58:
Lexception4:
	.byte	255                     ## @LPStart Encoding = omit
	.byte	255                     ## @TType Encoding = omit
	.byte	1                       ## Call site Encoding = uleb128
	.uleb128 Lcst_end4-Lcst_begin4
Lcst_begin4:
	.uleb128 Lfunc_begin58-Lfunc_begin58 ## >> Call Site 1 <<
	.uleb128 Ltmp227-Lfunc_begin58  ##   Call between Lfunc_begin58 and Ltmp227
	.byte	0                       ##     has no landing pad
	.byte	0                       ##   On action: cleanup
	.uleb128 Ltmp227-Lfunc_begin58  ## >> Call Site 2 <<
	.uleb128 Ltmp228-Ltmp227        ##   Call between Ltmp227 and Ltmp228
	.uleb128 Ltmp229-Lfunc_begin58  ##     jumps to Ltmp229
	.byte	0                       ##   On action: cleanup
	.uleb128 Ltmp228-Lfunc_begin58  ## >> Call Site 3 <<
	.uleb128 Lfunc_end58-Ltmp228    ##   Call between Ltmp228 and Lfunc_end58
	.byte	0                       ##     has no landing pad
	.byte	0                       ##   On action: cleanup
Lcst_end4:
	.p2align	2
                                        ## -- End function
	.section	__TEXT,__text,regular,pure_instructions
	.p2align	4, 0x90         ## -- Begin function _ZNSt3__1L17__libcpp_allocateEmm
__ZNSt3__1L17__libcpp_allocateEmm:      ## @_ZNSt3__1L17__libcpp_allocateEmm
Lfunc_begin59:
	.file	69 "/Library/Developer/CommandLineTools/usr/bin/../include/c++/v1" "new"
	.loc	69 237 0                ## /Library/Developer/CommandLineTools/usr/bin/../include/c++/v1/new:237:0
	.cfi_startproc
## %bb.0:
	pushq	%rbp
	.cfi_def_cfa_offset 16
	.cfi_offset %rbp, -16
	movq	%rsp, %rbp
	.cfi_def_cfa_register %rbp
	subq	$16, %rsp
	movq	%rdi, -8(%rbp)
	movq	%rsi, -16(%rbp)
Ltmp232:
	.loc	69 253 33 prologue_end  ## /Library/Developer/CommandLineTools/usr/bin/../include/c++/v1/new:253:33
	movq	-8(%rbp), %rdi
	.loc	69 253 10 is_stmt 0     ## /Library/Developer/CommandLineTools/usr/bin/../include/c++/v1/new:253:10
	callq	__Znwm
	.loc	69 253 3                ## /Library/Developer/CommandLineTools/usr/bin/../include/c++/v1/new:253:3
	addq	$16, %rsp
	popq	%rbp
	retq
Ltmp233:
Lfunc_end59:
	.cfi_endproc
                                        ## -- End function
	.p2align	4, 0x90         ## -- Begin function _ZNSt12length_errorC1EPKc
__ZNSt12length_errorC1EPKc:             ## @_ZNSt12length_errorC1EPKc
Lfunc_begin60:
	.loc	17 153 0 is_stmt 1      ## /Library/Developer/CommandLineTools/usr/bin/../include/c++/v1/stdexcept:153:0
	.cfi_startproc
## %bb.0:
	pushq	%rbp
	.cfi_def_cfa_offset 16
	.cfi_offset %rbp, -16
	movq	%rsp, %rbp
	.cfi_def_cfa_register %rbp
	subq	$16, %rsp
	movq	%rdi, -8(%rbp)
	movq	%rsi, -16(%rbp)
	movq	-8(%rbp), %rdi
Ltmp234:
	.loc	17 153 91 prologue_end  ## /Library/Developer/CommandLineTools/usr/bin/../include/c++/v1/stdexcept:153:91
	movq	-16(%rbp), %rsi
	callq	__ZNSt12length_errorC2EPKc
	.loc	17 153 92 is_stmt 0     ## /Library/Developer/CommandLineTools/usr/bin/../include/c++/v1/stdexcept:153:92
	addq	$16, %rsp
	popq	%rbp
	retq
Ltmp235:
Lfunc_end60:
	.cfi_endproc
                                        ## -- End function
	.p2align	4, 0x90         ## -- Begin function _ZNSt12length_errorC2EPKc
__ZNSt12length_errorC2EPKc:             ## @_ZNSt12length_errorC2EPKc
Lfunc_begin61:
	.loc	17 153 0 is_stmt 1      ## /Library/Developer/CommandLineTools/usr/bin/../include/c++/v1/stdexcept:153:0
	.cfi_startproc
## %bb.0:
	pushq	%rbp
	.cfi_def_cfa_offset 16
	.cfi_offset %rbp, -16
	movq	%rsp, %rbp
	.cfi_def_cfa_register %rbp
	subq	$32, %rsp
	movq	%rdi, -8(%rbp)
	movq	%rsi, -16(%rbp)
	movq	-8(%rbp), %rax
Ltmp236:
	.loc	17 153 91 prologue_end  ## /Library/Developer/CommandLineTools/usr/bin/../include/c++/v1/stdexcept:153:91
	movq	%rax, %rcx
	.loc	17 153 86 is_stmt 0     ## /Library/Developer/CommandLineTools/usr/bin/../include/c++/v1/stdexcept:153:86
	movq	-16(%rbp), %rsi
	.loc	17 153 74               ## /Library/Developer/CommandLineTools/usr/bin/../include/c++/v1/stdexcept:153:74
	movq	%rcx, %rdi
	movq	%rax, -24(%rbp)         ## 8-byte Spill
	callq	__ZNSt11logic_errorC2EPKc
	movq	__ZTVSt12length_error@GOTPCREL(%rip), %rax
	addq	$16, %rax
	movq	-24(%rbp), %rcx         ## 8-byte Reload
	.loc	17 153 91               ## /Library/Developer/CommandLineTools/usr/bin/../include/c++/v1/stdexcept:153:91
	movq	%rax, (%rcx)
	.loc	17 153 92               ## /Library/Developer/CommandLineTools/usr/bin/../include/c++/v1/stdexcept:153:92
	addq	$32, %rsp
	popq	%rbp
	retq
Ltmp237:
Lfunc_end61:
	.cfi_endproc
                                        ## -- End function
	.p2align	4, 0x90         ## -- Begin function _ZNSt3__117__compressed_pairIPiNS_9allocatorIiEEE6secondEv
__ZNSt3__117__compressed_pairIPiNS_9allocatorIiEEE6secondEv: ## @_ZNSt3__117__compressed_pairIPiNS_9allocatorIiEEE6secondEv
Lfunc_begin62:
	.loc	8 2288 0 is_stmt 1      ## /Library/Developer/CommandLineTools/usr/bin/../include/c++/v1/memory:2288:0
	.cfi_startproc
## %bb.0:
	pushq	%rbp
	.cfi_def_cfa_offset 16
	.cfi_offset %rbp, -16
	movq	%rsp, %rbp
	.cfi_def_cfa_register %rbp
	subq	$16, %rsp
	movq	%rdi, -8(%rbp)
	movq	-8(%rbp), %rax
Ltmp238:
	.loc	8 2289 40 prologue_end  ## /Library/Developer/CommandLineTools/usr/bin/../include/c++/v1/memory:2289:40
	movq	%rax, %rdi
	callq	__ZNSt3__122__compressed_pair_elemINS_9allocatorIiEELi1ELb1EE5__getEv
	.loc	8 2289 5 is_stmt 0      ## /Library/Developer/CommandLineTools/usr/bin/../include/c++/v1/memory:2289:5
	addq	$16, %rsp
	popq	%rbp
	retq
Ltmp239:
Lfunc_end62:
	.cfi_endproc
                                        ## -- End function
	.p2align	4, 0x90         ## -- Begin function _ZNSt3__122__compressed_pair_elemINS_9allocatorIiEELi1ELb1EE5__getEv
__ZNSt3__122__compressed_pair_elemINS_9allocatorIiEELi1ELb1EE5__getEv: ## @_ZNSt3__122__compressed_pair_elemINS_9allocatorIiEELi1ELb1EE5__getEv
Lfunc_begin63:
	.loc	8 2201 0 is_stmt 1      ## /Library/Developer/CommandLineTools/usr/bin/../include/c++/v1/memory:2201:0
	.cfi_startproc
## %bb.0:
	pushq	%rbp
	.cfi_def_cfa_offset 16
	.cfi_offset %rbp, -16
	movq	%rsp, %rbp
	.cfi_def_cfa_register %rbp
	movq	%rdi, -8(%rbp)
	movq	-8(%rbp), %rax
Ltmp240:
	.loc	8 2201 59 prologue_end  ## /Library/Developer/CommandLineTools/usr/bin/../include/c++/v1/memory:2201:59
	popq	%rbp
	retq
Ltmp241:
Lfunc_end63:
	.cfi_endproc
                                        ## -- End function
	.p2align	4, 0x90         ## -- Begin function _ZNSt3__117__compressed_pairIPiNS_9allocatorIiEEE5firstEv
__ZNSt3__117__compressed_pairIPiNS_9allocatorIiEEE5firstEv: ## @_ZNSt3__117__compressed_pairIPiNS_9allocatorIiEEE5firstEv
Lfunc_begin64:
	.loc	8 2278 0                ## /Library/Developer/CommandLineTools/usr/bin/../include/c++/v1/memory:2278:0
	.cfi_startproc
## %bb.0:
	pushq	%rbp
	.cfi_def_cfa_offset 16
	.cfi_offset %rbp, -16
	movq	%rsp, %rbp
	.cfi_def_cfa_register %rbp
	subq	$16, %rsp
	movq	%rdi, -8(%rbp)
	movq	-8(%rbp), %rax
Ltmp242:
	.loc	8 2279 40 prologue_end  ## /Library/Developer/CommandLineTools/usr/bin/../include/c++/v1/memory:2279:40
	movq	%rax, %rdi
	callq	__ZNSt3__122__compressed_pair_elemIPiLi0ELb0EE5__getEv
	.loc	8 2279 5 is_stmt 0      ## /Library/Developer/CommandLineTools/usr/bin/../include/c++/v1/memory:2279:5
	addq	$16, %rsp
	popq	%rbp
	retq
Ltmp243:
Lfunc_end64:
	.cfi_endproc
                                        ## -- End function
	.p2align	4, 0x90         ## -- Begin function _ZNSt3__122__compressed_pair_elemIPiLi0ELb0EE5__getEv
__ZNSt3__122__compressed_pair_elemIPiLi0ELb0EE5__getEv: ## @_ZNSt3__122__compressed_pair_elemIPiLi0ELb0EE5__getEv
Lfunc_begin65:
	.loc	8 2162 0 is_stmt 1      ## /Library/Developer/CommandLineTools/usr/bin/../include/c++/v1/memory:2162:0
	.cfi_startproc
## %bb.0:
	pushq	%rbp
	.cfi_def_cfa_offset 16
	.cfi_offset %rbp, -16
	movq	%rsp, %rbp
	.cfi_def_cfa_register %rbp
	movq	%rdi, -8(%rbp)
	movq	-8(%rbp), %rax
Ltmp244:
	.loc	8 2162 59 prologue_end  ## /Library/Developer/CommandLineTools/usr/bin/../include/c++/v1/memory:2162:59
	popq	%rbp
	retq
Ltmp245:
Lfunc_end65:
	.cfi_endproc
                                        ## -- End function
	.p2align	4, 0x90         ## -- Begin function _ZNKSt3__16vectorIiNS_9allocatorIiEEE31__annotate_contiguous_containerEPKvS5_S5_S5_
__ZNKSt3__16vectorIiNS_9allocatorIiEEE31__annotate_contiguous_containerEPKvS5_S5_S5_: ## @_ZNKSt3__16vectorIiNS_9allocatorIiEEE31__annotate_contiguous_containerEPKvS5_S5_S5_
Lfunc_begin66:
	.loc	18 862 0                ## /Library/Developer/CommandLineTools/usr/bin/../include/c++/v1/vector:862:0
	.cfi_startproc
## %bb.0:
	pushq	%rbp
	.cfi_def_cfa_offset 16
	.cfi_offset %rbp, -16
	movq	%rsp, %rbp
	.cfi_def_cfa_register %rbp
	movq	%rdi, -8(%rbp)
	movq	%rsi, -16(%rbp)
	movq	%rdx, -24(%rbp)
	movq	%rcx, -32(%rbp)
	movq	%r8, -40(%rbp)
Ltmp246:
	.loc	18 862 62 prologue_end  ## /Library/Developer/CommandLineTools/usr/bin/../include/c++/v1/vector:862:62
	popq	%rbp
	retq
Ltmp247:
Lfunc_end66:
	.cfi_endproc
                                        ## -- End function
	.p2align	4, 0x90         ## -- Begin function _ZNKSt3__16vectorIiNS_9allocatorIiEEE4dataEv
__ZNKSt3__16vectorIiNS_9allocatorIiEEE4dataEv: ## @_ZNKSt3__16vectorIiNS_9allocatorIiEEE4dataEv
Lfunc_begin67:
	.loc	18 698 0                ## /Library/Developer/CommandLineTools/usr/bin/../include/c++/v1/vector:698:0
	.cfi_startproc
## %bb.0:
	pushq	%rbp
	.cfi_def_cfa_offset 16
	.cfi_offset %rbp, -16
	movq	%rsp, %rbp
	.cfi_def_cfa_register %rbp
	subq	$16, %rsp
	movq	%rdi, -8(%rbp)
	movq	-8(%rbp), %rax
Ltmp248:
	.loc	18 698 47 prologue_end  ## /Library/Developer/CommandLineTools/usr/bin/../include/c++/v1/vector:698:47
	movq	(%rax), %rdi
	.loc	18 698 17 is_stmt 0     ## /Library/Developer/CommandLineTools/usr/bin/../include/c++/v1/vector:698:17
	callq	__ZNSt3__1L16__to_raw_pointerIiEEPT_S2_
	.loc	18 698 10               ## /Library/Developer/CommandLineTools/usr/bin/../include/c++/v1/vector:698:10
	addq	$16, %rsp
	popq	%rbp
	retq
Ltmp249:
Lfunc_end67:
	.cfi_endproc
                                        ## -- End function
	.p2align	4, 0x90         ## -- Begin function _ZNKSt3__16vectorIiNS_9allocatorIiEEE8capacityEv
__ZNKSt3__16vectorIiNS_9allocatorIiEEE8capacityEv: ## @_ZNKSt3__16vectorIiNS_9allocatorIiEEE8capacityEv
Lfunc_begin68:
	.loc	18 659 0 is_stmt 1      ## /Library/Developer/CommandLineTools/usr/bin/../include/c++/v1/vector:659:0
	.cfi_startproc
## %bb.0:
	pushq	%rbp
	.cfi_def_cfa_offset 16
	.cfi_offset %rbp, -16
	movq	%rsp, %rbp
	.cfi_def_cfa_register %rbp
	subq	$16, %rsp
	movq	%rdi, -8(%rbp)
	movq	-8(%rbp), %rax
Ltmp250:
	.loc	18 659 25 prologue_end  ## /Library/Developer/CommandLineTools/usr/bin/../include/c++/v1/vector:659:25
	movq	%rax, %rdi
	callq	__ZNKSt3__113__vector_baseIiNS_9allocatorIiEEE8capacityEv
	.loc	18 659 10 is_stmt 0     ## /Library/Developer/CommandLineTools/usr/bin/../include/c++/v1/vector:659:10
	addq	$16, %rsp
	popq	%rbp
	retq
Ltmp251:
Lfunc_end68:
	.cfi_endproc
                                        ## -- End function
	.p2align	4, 0x90         ## -- Begin function _ZNSt3__1L16__to_raw_pointerIiEEPT_S2_
__ZNSt3__1L16__to_raw_pointerIiEEPT_S2_: ## @_ZNSt3__1L16__to_raw_pointerIiEEPT_S2_
Lfunc_begin69:
	.loc	8 1106 0 is_stmt 1      ## /Library/Developer/CommandLineTools/usr/bin/../include/c++/v1/memory:1106:0
	.cfi_startproc
## %bb.0:
	pushq	%rbp
	.cfi_def_cfa_offset 16
	.cfi_offset %rbp, -16
	movq	%rsp, %rbp
	.cfi_def_cfa_register %rbp
	movq	%rdi, -8(%rbp)
Ltmp252:
	.loc	8 1107 12 prologue_end  ## /Library/Developer/CommandLineTools/usr/bin/../include/c++/v1/memory:1107:12
	movq	-8(%rbp), %rax
	.loc	8 1107 5 is_stmt 0      ## /Library/Developer/CommandLineTools/usr/bin/../include/c++/v1/memory:1107:5
	popq	%rbp
	retq
Ltmp253:
Lfunc_end69:
	.cfi_endproc
                                        ## -- End function
	.p2align	4, 0x90         ## -- Begin function _ZNKSt3__113__vector_baseIiNS_9allocatorIiEEE8capacityEv
__ZNKSt3__113__vector_baseIiNS_9allocatorIiEEE8capacityEv: ## @_ZNKSt3__113__vector_baseIiNS_9allocatorIiEEE8capacityEv
Lfunc_begin70:
	.loc	18 372 0 is_stmt 1      ## /Library/Developer/CommandLineTools/usr/bin/../include/c++/v1/vector:372:0
	.cfi_startproc
## %bb.0:
	pushq	%rbp
	.cfi_def_cfa_offset 16
	.cfi_offset %rbp, -16
	movq	%rsp, %rbp
	.cfi_def_cfa_register %rbp
	subq	$16, %rsp
	movq	%rdi, -8(%rbp)
	movq	-8(%rbp), %rax
Ltmp254:
	.loc	18 372 40 prologue_end  ## /Library/Developer/CommandLineTools/usr/bin/../include/c++/v1/vector:372:40
	movq	%rax, %rdi
	movq	%rax, -16(%rbp)         ## 8-byte Spill
	callq	__ZNKSt3__113__vector_baseIiNS_9allocatorIiEEE9__end_capEv
	movq	(%rax), %rax
	movq	-16(%rbp), %rcx         ## 8-byte Reload
	.loc	18 372 54 is_stmt 0     ## /Library/Developer/CommandLineTools/usr/bin/../include/c++/v1/vector:372:54
	movq	(%rcx), %rdx
	.loc	18 372 52               ## /Library/Developer/CommandLineTools/usr/bin/../include/c++/v1/vector:372:52
	subq	%rdx, %rax
	sarq	$2, %rax
	.loc	18 372 10               ## /Library/Developer/CommandLineTools/usr/bin/../include/c++/v1/vector:372:10
	addq	$16, %rsp
	popq	%rbp
	retq
Ltmp255:
Lfunc_end70:
	.cfi_endproc
                                        ## -- End function
	.p2align	4, 0x90         ## -- Begin function _ZNKSt3__113__vector_baseIiNS_9allocatorIiEEE9__end_capEv
__ZNKSt3__113__vector_baseIiNS_9allocatorIiEEE9__end_capEv: ## @_ZNKSt3__113__vector_baseIiNS_9allocatorIiEEE9__end_capEv
Lfunc_begin71:
	.loc	18 357 0 is_stmt 1      ## /Library/Developer/CommandLineTools/usr/bin/../include/c++/v1/vector:357:0
	.cfi_startproc
## %bb.0:
	pushq	%rbp
	.cfi_def_cfa_offset 16
	.cfi_offset %rbp, -16
	movq	%rsp, %rbp
	.cfi_def_cfa_register %rbp
	subq	$16, %rsp
	movq	%rdi, -8(%rbp)
	movq	-8(%rbp), %rax
Ltmp256:
	.loc	18 357 17 prologue_end  ## /Library/Developer/CommandLineTools/usr/bin/../include/c++/v1/vector:357:17
	addq	$16, %rax
	.loc	18 357 28 is_stmt 0     ## /Library/Developer/CommandLineTools/usr/bin/../include/c++/v1/vector:357:28
	movq	%rax, %rdi
	callq	__ZNKSt3__117__compressed_pairIPiNS_9allocatorIiEEE5firstEv
	.loc	18 357 10               ## /Library/Developer/CommandLineTools/usr/bin/../include/c++/v1/vector:357:10
	addq	$16, %rsp
	popq	%rbp
	retq
Ltmp257:
Lfunc_end71:
	.cfi_endproc
                                        ## -- End function
	.p2align	4, 0x90         ## -- Begin function _ZNKSt3__117__compressed_pairIPiNS_9allocatorIiEEE5firstEv
__ZNKSt3__117__compressed_pairIPiNS_9allocatorIiEEE5firstEv: ## @_ZNKSt3__117__compressed_pairIPiNS_9allocatorIiEEE5firstEv
Lfunc_begin72:
	.loc	8 2283 0 is_stmt 1      ## /Library/Developer/CommandLineTools/usr/bin/../include/c++/v1/memory:2283:0
	.cfi_startproc
## %bb.0:
	pushq	%rbp
	.cfi_def_cfa_offset 16
	.cfi_offset %rbp, -16
	movq	%rsp, %rbp
	.cfi_def_cfa_register %rbp
	subq	$16, %rsp
	movq	%rdi, -8(%rbp)
	movq	-8(%rbp), %rax
Ltmp258:
	.loc	8 2284 46 prologue_end  ## /Library/Developer/CommandLineTools/usr/bin/../include/c++/v1/memory:2284:46
	movq	%rax, %rdi
	callq	__ZNKSt3__122__compressed_pair_elemIPiLi0ELb0EE5__getEv
	.loc	8 2284 5 is_stmt 0      ## /Library/Developer/CommandLineTools/usr/bin/../include/c++/v1/memory:2284:5
	addq	$16, %rsp
	popq	%rbp
	retq
Ltmp259:
Lfunc_end72:
	.cfi_endproc
                                        ## -- End function
	.p2align	4, 0x90         ## -- Begin function _ZNKSt3__122__compressed_pair_elemIPiLi0ELb0EE5__getEv
__ZNKSt3__122__compressed_pair_elemIPiLi0ELb0EE5__getEv: ## @_ZNKSt3__122__compressed_pair_elemIPiLi0ELb0EE5__getEv
Lfunc_begin73:
	.loc	8 2164 0 is_stmt 1      ## /Library/Developer/CommandLineTools/usr/bin/../include/c++/v1/memory:2164:0
	.cfi_startproc
## %bb.0:
	pushq	%rbp
	.cfi_def_cfa_offset 16
	.cfi_offset %rbp, -16
	movq	%rsp, %rbp
	.cfi_def_cfa_register %rbp
	movq	%rdi, -8(%rbp)
	movq	-8(%rbp), %rax
Ltmp260:
	.loc	8 2164 45 prologue_end  ## /Library/Developer/CommandLineTools/usr/bin/../include/c++/v1/memory:2164:45
	popq	%rbp
	retq
Ltmp261:
Lfunc_end73:
	.cfi_endproc
                                        ## -- End function
	.p2align	4, 0x90         ## -- Begin function _ZNSt3__16vectorIiNS_9allocatorIiEEE24__RAII_IncreaseAnnotatorC1ERKS3_m
__ZNSt3__16vectorIiNS_9allocatorIiEEE24__RAII_IncreaseAnnotatorC1ERKS3_m: ## @_ZNSt3__16vectorIiNS_9allocatorIiEEE24__RAII_IncreaseAnnotatorC1ERKS3_m
Lfunc_begin74:
	.loc	18 909 0                ## /Library/Developer/CommandLineTools/usr/bin/../include/c++/v1/vector:909:0
	.cfi_startproc
## %bb.0:
	pushq	%rbp
	.cfi_def_cfa_offset 16
	.cfi_offset %rbp, -16
	movq	%rsp, %rbp
	.cfi_def_cfa_register %rbp
	subq	$32, %rsp
	movq	%rdi, -8(%rbp)
	movq	%rsi, -16(%rbp)
	movq	%rdx, -24(%rbp)
	movq	-8(%rbp), %rdi
Ltmp262:
	.loc	18 909 63 prologue_end  ## /Library/Developer/CommandLineTools/usr/bin/../include/c++/v1/vector:909:63
	movq	-16(%rbp), %rsi
	movq	-24(%rbp), %rdx
	callq	__ZNSt3__16vectorIiNS_9allocatorIiEEE24__RAII_IncreaseAnnotatorC2ERKS3_m
	.loc	18 909 64 is_stmt 0     ## /Library/Developer/CommandLineTools/usr/bin/../include/c++/v1/vector:909:64
	addq	$32, %rsp
	popq	%rbp
	retq
Ltmp263:
Lfunc_end74:
	.cfi_endproc
                                        ## -- End function
	.p2align	4, 0x90         ## -- Begin function _ZNSt3__116allocator_traitsINS_9allocatorIiEEE25__construct_range_forwardIKiiiiEENS_9enable_ifIXaaaasr31is_trivially_move_constructibleIT0_EE5valuesr7is_sameIT1_T2_EE5valueooL_ZNS_17integral_constantIbLb1EE5valueEEntsr15__has_constructIS2_PS7_RT_EE5valueEvE4typeERS2_PSD_SI_RSC_
__ZNSt3__116allocator_traitsINS_9allocatorIiEEE25__construct_range_forwardIKiiiiEENS_9enable_ifIXaaaasr31is_trivially_move_constructibleIT0_EE5valuesr7is_sameIT1_T2_EE5valueooL_ZNS_17integral_constantIbLb1EE5valueEEntsr15__has_constructIS2_PS7_RT_EE5valueEvE4typeERS2_PSD_SI_RSC_: ## @_ZNSt3__116allocator_traitsINS_9allocatorIiEEE25__construct_range_forwardIKiiiiEENS_9enable_ifIXaaaasr31is_trivially_move_constructibleIT0_EE5valuesr7is_sameIT1_T2_EE5valueooL_ZNS_17integral_constantIbLb1EE5valueEEntsr15__has_constructIS2_PS7_RT_EE5valueEvE4typeERS2_PSD_SI_RSC_
Lfunc_begin75:
	.loc	8 1662 0 is_stmt 1      ## /Library/Developer/CommandLineTools/usr/bin/../include/c++/v1/memory:1662:0
	.cfi_startproc
## %bb.0:
	pushq	%rbp
	.cfi_def_cfa_offset 16
	.cfi_offset %rbp, -16
	movq	%rsp, %rbp
	.cfi_def_cfa_register %rbp
	subq	$48, %rsp
	movq	%rdi, -8(%rbp)
	movq	%rsi, -16(%rbp)
	movq	%rdx, -24(%rbp)
	movq	%rcx, -32(%rbp)
Ltmp264:
	.loc	8 1663 29 prologue_end  ## /Library/Developer/CommandLineTools/usr/bin/../include/c++/v1/memory:1663:29
	movq	-24(%rbp), %rax
	.loc	8 1663 38 is_stmt 0     ## /Library/Developer/CommandLineTools/usr/bin/../include/c++/v1/memory:1663:38
	movq	-16(%rbp), %rcx
	.loc	8 1663 36               ## /Library/Developer/CommandLineTools/usr/bin/../include/c++/v1/memory:1663:36
	subq	%rcx, %rax
	sarq	$2, %rax
	.loc	8 1663 23               ## /Library/Developer/CommandLineTools/usr/bin/../include/c++/v1/memory:1663:23
	movq	%rax, -40(%rbp)
Ltmp265:
	.loc	8 1664 21 is_stmt 1     ## /Library/Developer/CommandLineTools/usr/bin/../include/c++/v1/memory:1664:21
	cmpq	$0, -40(%rbp)
Ltmp266:
	.loc	8 1664 17 is_stmt 0     ## /Library/Developer/CommandLineTools/usr/bin/../include/c++/v1/memory:1664:17
	jle	LBB75_2
## %bb.1:
Ltmp267:
	.loc	8 1666 55 is_stmt 1     ## /Library/Developer/CommandLineTools/usr/bin/../include/c++/v1/memory:1666:55
	movq	-32(%rbp), %rax
	movq	(%rax), %rax
	.loc	8 1666 66 is_stmt 0     ## /Library/Developer/CommandLineTools/usr/bin/../include/c++/v1/memory:1666:66
	movq	-16(%rbp), %rcx
	.loc	8 1666 76               ## /Library/Developer/CommandLineTools/usr/bin/../include/c++/v1/memory:1666:76
	movq	-40(%rbp), %rdx
	.loc	8 1666 80               ## /Library/Developer/CommandLineTools/usr/bin/../include/c++/v1/memory:1666:80
	shlq	$2, %rdx
	.loc	8 1666 17               ## /Library/Developer/CommandLineTools/usr/bin/../include/c++/v1/memory:1666:17
	movq	%rax, %rdi
	movq	%rcx, %rsi
	callq	_memcpy
	.loc	8 1667 29 is_stmt 1     ## /Library/Developer/CommandLineTools/usr/bin/../include/c++/v1/memory:1667:29
	movq	-40(%rbp), %rax
	.loc	8 1667 17 is_stmt 0     ## /Library/Developer/CommandLineTools/usr/bin/../include/c++/v1/memory:1667:17
	movq	-32(%rbp), %rcx
	.loc	8 1667 26               ## /Library/Developer/CommandLineTools/usr/bin/../include/c++/v1/memory:1667:26
	shlq	$2, %rax
	addq	(%rcx), %rax
	movq	%rax, (%rcx)
Ltmp268:
LBB75_2:
	.loc	8 1669 9 is_stmt 1      ## /Library/Developer/CommandLineTools/usr/bin/../include/c++/v1/memory:1669:9
	addq	$48, %rsp
	popq	%rbp
	retq
Ltmp269:
Lfunc_end75:
	.cfi_endproc
                                        ## -- End function
	.p2align	4, 0x90         ## -- Begin function _ZNSt3__16vectorIiNS_9allocatorIiEEE24__RAII_IncreaseAnnotator6__doneEv
__ZNSt3__16vectorIiNS_9allocatorIiEEE24__RAII_IncreaseAnnotator6__doneEv: ## @_ZNSt3__16vectorIiNS_9allocatorIiEEE24__RAII_IncreaseAnnotator6__doneEv
Lfunc_begin76:
	.loc	18 910 0                ## /Library/Developer/CommandLineTools/usr/bin/../include/c++/v1/vector:910:0
	.cfi_startproc
## %bb.0:
	pushq	%rbp
	.cfi_def_cfa_offset 16
	.cfi_offset %rbp, -16
	movq	%rsp, %rbp
	.cfi_def_cfa_register %rbp
	movq	%rdi, -8(%rbp)
Ltmp270:
	.loc	18 910 48 prologue_end  ## /Library/Developer/CommandLineTools/usr/bin/../include/c++/v1/vector:910:48
	popq	%rbp
	retq
Ltmp271:
Lfunc_end76:
	.cfi_endproc
                                        ## -- End function
	.p2align	4, 0x90         ## -- Begin function _ZNSt3__16vectorIiNS_9allocatorIiEEE24__RAII_IncreaseAnnotatorC2ERKS3_m
__ZNSt3__16vectorIiNS_9allocatorIiEEE24__RAII_IncreaseAnnotatorC2ERKS3_m: ## @_ZNSt3__16vectorIiNS_9allocatorIiEEE24__RAII_IncreaseAnnotatorC2ERKS3_m
Lfunc_begin77:
	.loc	18 909 0                ## /Library/Developer/CommandLineTools/usr/bin/../include/c++/v1/vector:909:0
	.cfi_startproc
## %bb.0:
	pushq	%rbp
	.cfi_def_cfa_offset 16
	.cfi_offset %rbp, -16
	movq	%rsp, %rbp
	.cfi_def_cfa_register %rbp
	movq	%rdi, -8(%rbp)
	movq	%rsi, -16(%rbp)
	movq	%rdx, -24(%rbp)
Ltmp272:
	.loc	18 909 64 prologue_end  ## /Library/Developer/CommandLineTools/usr/bin/../include/c++/v1/vector:909:64
	popq	%rbp
	retq
Ltmp273:
Lfunc_end77:
	.cfi_endproc
                                        ## -- End function
	.p2align	4, 0x90         ## -- Begin function _ZNSt3__113__vector_baseIiNS_9allocatorIiEEE5clearEv
__ZNSt3__113__vector_baseIiNS_9allocatorIiEEE5clearEv: ## @_ZNSt3__113__vector_baseIiNS_9allocatorIiEEE5clearEv
Lfunc_begin78:
	.loc	18 369 0                ## /Library/Developer/CommandLineTools/usr/bin/../include/c++/v1/vector:369:0
	.cfi_startproc
## %bb.0:
	pushq	%rbp
	.cfi_def_cfa_offset 16
	.cfi_offset %rbp, -16
	movq	%rsp, %rbp
	.cfi_def_cfa_register %rbp
	subq	$16, %rsp
	movq	%rdi, -8(%rbp)
	movq	-8(%rbp), %rax
Ltmp274:
	.loc	18 369 47 prologue_end  ## /Library/Developer/CommandLineTools/usr/bin/../include/c++/v1/vector:369:47
	movq	(%rax), %rsi
	.loc	18 369 29 is_stmt 0     ## /Library/Developer/CommandLineTools/usr/bin/../include/c++/v1/vector:369:29
	movq	%rax, %rdi
	callq	__ZNSt3__113__vector_baseIiNS_9allocatorIiEEE17__destruct_at_endEPi
	.loc	18 369 57               ## /Library/Developer/CommandLineTools/usr/bin/../include/c++/v1/vector:369:57
	addq	$16, %rsp
	popq	%rbp
	retq
Ltmp275:
Lfunc_end78:
	.cfi_endproc
                                        ## -- End function
	.p2align	4, 0x90         ## -- Begin function _ZNSt3__116allocator_traitsINS_9allocatorIiEEE10deallocateERS2_Pim
__ZNSt3__116allocator_traitsINS_9allocatorIiEEE10deallocateERS2_Pim: ## @_ZNSt3__116allocator_traitsINS_9allocatorIiEEE10deallocateERS2_Pim
Lfunc_begin79:
	.loc	8 1554 0 is_stmt 1      ## /Library/Developer/CommandLineTools/usr/bin/../include/c++/v1/memory:1554:0
	.cfi_startproc
## %bb.0:
	pushq	%rbp
	.cfi_def_cfa_offset 16
	.cfi_offset %rbp, -16
	movq	%rsp, %rbp
	.cfi_def_cfa_register %rbp
	subq	$32, %rsp
	movq	%rdi, -8(%rbp)
	movq	%rsi, -16(%rbp)
	movq	%rdx, -24(%rbp)
Ltmp276:
	.loc	8 1554 10 prologue_end  ## /Library/Developer/CommandLineTools/usr/bin/../include/c++/v1/memory:1554:10
	movq	-8(%rbp), %rdi
	.loc	8 1554 25 is_stmt 0     ## /Library/Developer/CommandLineTools/usr/bin/../include/c++/v1/memory:1554:25
	movq	-16(%rbp), %rsi
	.loc	8 1554 30               ## /Library/Developer/CommandLineTools/usr/bin/../include/c++/v1/memory:1554:30
	movq	-24(%rbp), %rdx
	.loc	8 1554 14               ## /Library/Developer/CommandLineTools/usr/bin/../include/c++/v1/memory:1554:14
	callq	__ZNSt3__19allocatorIiE10deallocateEPim
	.loc	8 1554 35               ## /Library/Developer/CommandLineTools/usr/bin/../include/c++/v1/memory:1554:35
	addq	$32, %rsp
	popq	%rbp
	retq
Ltmp277:
Lfunc_end79:
	.cfi_endproc
                                        ## -- End function
	.p2align	4, 0x90         ## -- Begin function _ZNSt3__113__vector_baseIiNS_9allocatorIiEEE17__destruct_at_endEPi
__ZNSt3__113__vector_baseIiNS_9allocatorIiEEE17__destruct_at_endEPi: ## @_ZNSt3__113__vector_baseIiNS_9allocatorIiEEE17__destruct_at_endEPi
Lfunc_begin80:
	.loc	18 423 0 is_stmt 1      ## /Library/Developer/CommandLineTools/usr/bin/../include/c++/v1/vector:423:0
	.cfi_startproc
	.cfi_personality 155, ___gxx_personality_v0
	.cfi_lsda 16, Lexception5
## %bb.0:
	pushq	%rbp
	.cfi_def_cfa_offset 16
	.cfi_offset %rbp, -16
	movq	%rsp, %rbp
	.cfi_def_cfa_register %rbp
	subq	$48, %rsp
	movq	%rdi, -8(%rbp)
	movq	%rsi, -16(%rbp)
	movq	-8(%rbp), %rax
Ltmp281:
	.loc	18 424 32 prologue_end  ## /Library/Developer/CommandLineTools/usr/bin/../include/c++/v1/vector:424:32
	movq	8(%rax), %rcx
	.loc	18 424 13 is_stmt 0     ## /Library/Developer/CommandLineTools/usr/bin/../include/c++/v1/vector:424:13
	movq	%rcx, -24(%rbp)
	movq	%rax, -32(%rbp)         ## 8-byte Spill
LBB80_1:                                ## =>This Inner Loop Header: Depth=1
	.loc	18 425 12 is_stmt 1     ## /Library/Developer/CommandLineTools/usr/bin/../include/c++/v1/vector:425:12
	movq	-16(%rbp), %rax
	.loc	18 425 23 is_stmt 0     ## /Library/Developer/CommandLineTools/usr/bin/../include/c++/v1/vector:425:23
	cmpq	-24(%rbp), %rax
	.loc	18 425 5                ## /Library/Developer/CommandLineTools/usr/bin/../include/c++/v1/vector:425:5
	je	LBB80_4
## %bb.2:                               ##   in Loop: Header=BB80_1 Depth=1
	.loc	18 0 5                  ## /Library/Developer/CommandLineTools/usr/bin/../include/c++/v1/vector:0:5
	movq	-32(%rbp), %rdi         ## 8-byte Reload
	.loc	18 426 33 is_stmt 1     ## /Library/Developer/CommandLineTools/usr/bin/../include/c++/v1/vector:426:33
	callq	__ZNSt3__113__vector_baseIiNS_9allocatorIiEEE7__allocEv
	.loc	18 426 68 is_stmt 0     ## /Library/Developer/CommandLineTools/usr/bin/../include/c++/v1/vector:426:68
	movq	-24(%rbp), %rcx
	addq	$-4, %rcx
	movq	%rcx, -24(%rbp)
	.loc	18 426 44               ## /Library/Developer/CommandLineTools/usr/bin/../include/c++/v1/vector:426:44
	movq	%rcx, %rdi
	movq	%rax, -40(%rbp)         ## 8-byte Spill
	callq	__ZNSt3__1L16__to_raw_pointerIiEEPT_S2_
Ltmp278:
	movq	-40(%rbp), %rdi         ## 8-byte Reload
	.loc	18 426 9                ## /Library/Developer/CommandLineTools/usr/bin/../include/c++/v1/vector:426:9
	movq	%rax, %rsi
	callq	__ZNSt3__116allocator_traitsINS_9allocatorIiEEE7destroyIiEEvRS2_PT_
Ltmp279:
	jmp	LBB80_3
LBB80_3:                                ##   in Loop: Header=BB80_1 Depth=1
	.loc	18 425 5 is_stmt 1      ## /Library/Developer/CommandLineTools/usr/bin/../include/c++/v1/vector:425:5
	jmp	LBB80_1
LBB80_4:
	.loc	18 427 14               ## /Library/Developer/CommandLineTools/usr/bin/../include/c++/v1/vector:427:14
	movq	-16(%rbp), %rax
	movq	-32(%rbp), %rcx         ## 8-byte Reload
	.loc	18 427 12 is_stmt 0     ## /Library/Developer/CommandLineTools/usr/bin/../include/c++/v1/vector:427:12
	movq	%rax, 8(%rcx)
	.loc	18 428 1 is_stmt 1      ## /Library/Developer/CommandLineTools/usr/bin/../include/c++/v1/vector:428:1
	addq	$48, %rsp
	popq	%rbp
	retq
LBB80_5:
Ltmp280:
	.loc	18 426 9                ## /Library/Developer/CommandLineTools/usr/bin/../include/c++/v1/vector:426:9
	movq	%rax, %rdi
	movq	%rdx, -48(%rbp)         ## 8-byte Spill
	callq	___clang_call_terminate
Ltmp282:
Lfunc_end80:
	.cfi_endproc
	.section	__TEXT,__gcc_except_tab
	.p2align	2
GCC_except_table80:
Lexception5:
	.byte	255                     ## @LPStart Encoding = omit
	.byte	155                     ## @TType Encoding = indirect pcrel sdata4
	.uleb128 Lttbase2-Lttbaseref2
Lttbaseref2:
	.byte	1                       ## Call site Encoding = uleb128
	.uleb128 Lcst_end5-Lcst_begin5
Lcst_begin5:
	.uleb128 Ltmp278-Lfunc_begin80  ## >> Call Site 1 <<
	.uleb128 Ltmp279-Ltmp278        ##   Call between Ltmp278 and Ltmp279
	.uleb128 Ltmp280-Lfunc_begin80  ##     jumps to Ltmp280
	.byte	1                       ##   On action: 1
Lcst_end5:
	.byte	1                       ## >> Action Record 1 <<
                                        ##   Catch TypeInfo 1
	.byte	0                       ##   No further actions
	.p2align	2
                                        ## >> Catch TypeInfos <<
	.long	0                       ## TypeInfo 1
Lttbase2:
	.p2align	2
                                        ## -- End function
	.section	__TEXT,__text,regular,pure_instructions
	.p2align	4, 0x90         ## -- Begin function _ZNSt3__116allocator_traitsINS_9allocatorIiEEE7destroyIiEEvRS2_PT_
__ZNSt3__116allocator_traitsINS_9allocatorIiEEE7destroyIiEEvRS2_PT_: ## @_ZNSt3__116allocator_traitsINS_9allocatorIiEEE7destroyIiEEvRS2_PT_
Lfunc_begin81:
	.loc	8 1595 0                ## /Library/Developer/CommandLineTools/usr/bin/../include/c++/v1/memory:1595:0
	.cfi_startproc
## %bb.0:
	pushq	%rbp
	.cfi_def_cfa_offset 16
	.cfi_offset %rbp, -16
	movq	%rsp, %rbp
	.cfi_def_cfa_register %rbp
	subq	$32, %rsp
	movq	%rdi, -8(%rbp)
	movq	%rsi, -16(%rbp)
Ltmp283:
	.loc	8 1595 63 prologue_end  ## /Library/Developer/CommandLineTools/usr/bin/../include/c++/v1/memory:1595:63
	movq	-8(%rbp), %rdi
	.loc	8 1595 68 is_stmt 0     ## /Library/Developer/CommandLineTools/usr/bin/../include/c++/v1/memory:1595:68
	movq	-16(%rbp), %rsi
	.loc	8 1595 14               ## /Library/Developer/CommandLineTools/usr/bin/../include/c++/v1/memory:1595:14
	callq	__ZNSt3__116allocator_traitsINS_9allocatorIiEEE9__destroyIiEEvNS_17integral_constantIbLb1EEERS2_PT_
	.loc	8 1595 73               ## /Library/Developer/CommandLineTools/usr/bin/../include/c++/v1/memory:1595:73
	addq	$32, %rsp
	popq	%rbp
	retq
Ltmp284:
Lfunc_end81:
	.cfi_endproc
                                        ## -- End function
	.p2align	4, 0x90         ## -- Begin function _ZNSt3__116allocator_traitsINS_9allocatorIiEEE9__destroyIiEEvNS_17integral_constantIbLb1EEERS2_PT_
__ZNSt3__116allocator_traitsINS_9allocatorIiEEE9__destroyIiEEvNS_17integral_constantIbLb1EEERS2_PT_: ## @_ZNSt3__116allocator_traitsINS_9allocatorIiEEE9__destroyIiEEvNS_17integral_constantIbLb1EEERS2_PT_
Lfunc_begin82:
	.loc	8 1742 0 is_stmt 1      ## /Library/Developer/CommandLineTools/usr/bin/../include/c++/v1/memory:1742:0
	.cfi_startproc
## %bb.0:
	pushq	%rbp
	.cfi_def_cfa_offset 16
	.cfi_offset %rbp, -16
	movq	%rsp, %rbp
	.cfi_def_cfa_register %rbp
	subq	$32, %rsp
	movq	%rdi, -16(%rbp)
	movq	%rsi, -24(%rbp)
Ltmp285:
	.loc	8 1742 14 prologue_end  ## /Library/Developer/CommandLineTools/usr/bin/../include/c++/v1/memory:1742:14
	movq	-16(%rbp), %rdi
	.loc	8 1742 26 is_stmt 0     ## /Library/Developer/CommandLineTools/usr/bin/../include/c++/v1/memory:1742:26
	movq	-24(%rbp), %rsi
	.loc	8 1742 18               ## /Library/Developer/CommandLineTools/usr/bin/../include/c++/v1/memory:1742:18
	callq	__ZNSt3__19allocatorIiE7destroyEPi
	.loc	8 1742 31               ## /Library/Developer/CommandLineTools/usr/bin/../include/c++/v1/memory:1742:31
	addq	$32, %rsp
	popq	%rbp
	retq
Ltmp286:
Lfunc_end82:
	.cfi_endproc
                                        ## -- End function
	.p2align	4, 0x90         ## -- Begin function _ZNSt3__19allocatorIiE7destroyEPi
__ZNSt3__19allocatorIiE7destroyEPi:     ## @_ZNSt3__19allocatorIiE7destroyEPi
Lfunc_begin83:
	.loc	8 1880 0 is_stmt 1      ## /Library/Developer/CommandLineTools/usr/bin/../include/c++/v1/memory:1880:0
	.cfi_startproc
## %bb.0:
	pushq	%rbp
	.cfi_def_cfa_offset 16
	.cfi_offset %rbp, -16
	movq	%rsp, %rbp
	.cfi_def_cfa_register %rbp
	movq	%rdi, -8(%rbp)
	movq	%rsi, -16(%rbp)
Ltmp287:
	.loc	8 1880 70 prologue_end  ## /Library/Developer/CommandLineTools/usr/bin/../include/c++/v1/memory:1880:70
	popq	%rbp
	retq
Ltmp288:
Lfunc_end83:
	.cfi_endproc
                                        ## -- End function
	.p2align	4, 0x90         ## -- Begin function _ZNSt3__19allocatorIiE10deallocateEPim
__ZNSt3__19allocatorIiE10deallocateEPim: ## @_ZNSt3__19allocatorIiE10deallocateEPim
Lfunc_begin84:
	.loc	8 1816 0                ## /Library/Developer/CommandLineTools/usr/bin/../include/c++/v1/memory:1816:0
	.cfi_startproc
	.cfi_personality 155, ___gxx_personality_v0
	.cfi_lsda 16, Lexception6
## %bb.0:
	pushq	%rbp
	.cfi_def_cfa_offset 16
	.cfi_offset %rbp, -16
	movq	%rsp, %rbp
	.cfi_def_cfa_register %rbp
	subq	$32, %rsp
	movq	%rdi, -8(%rbp)
	movq	%rsi, -16(%rbp)
	movq	%rdx, -24(%rbp)
Ltmp292:
	.loc	8 1816 44 prologue_end  ## /Library/Developer/CommandLineTools/usr/bin/../include/c++/v1/memory:1816:44
	movq	-16(%rbp), %rdi
	.loc	8 1816 49 is_stmt 0     ## /Library/Developer/CommandLineTools/usr/bin/../include/c++/v1/memory:1816:49
	movq	-24(%rbp), %rax
	.loc	8 1816 53               ## /Library/Developer/CommandLineTools/usr/bin/../include/c++/v1/memory:1816:53
	shlq	$2, %rax
Ltmp289:
	movl	$4, %edx
	.loc	8 1816 10               ## /Library/Developer/CommandLineTools/usr/bin/../include/c++/v1/memory:1816:10
	movq	%rax, %rsi
	callq	__ZNSt3__1L19__libcpp_deallocateEPvmm
Ltmp290:
	jmp	LBB84_1
LBB84_1:
	.loc	8 1816 90               ## /Library/Developer/CommandLineTools/usr/bin/../include/c++/v1/memory:1816:90
	addq	$32, %rsp
	popq	%rbp
	retq
LBB84_2:
Ltmp291:
	.loc	8 1816 10               ## /Library/Developer/CommandLineTools/usr/bin/../include/c++/v1/memory:1816:10
	movq	%rax, %rdi
	movq	%rdx, -32(%rbp)         ## 8-byte Spill
	callq	___clang_call_terminate
Ltmp293:
Lfunc_end84:
	.cfi_endproc
	.section	__TEXT,__gcc_except_tab
	.p2align	2
GCC_except_table84:
Lexception6:
	.byte	255                     ## @LPStart Encoding = omit
	.byte	155                     ## @TType Encoding = indirect pcrel sdata4
	.uleb128 Lttbase3-Lttbaseref3
Lttbaseref3:
	.byte	1                       ## Call site Encoding = uleb128
	.uleb128 Lcst_end6-Lcst_begin6
Lcst_begin6:
	.uleb128 Ltmp289-Lfunc_begin84  ## >> Call Site 1 <<
	.uleb128 Ltmp290-Ltmp289        ##   Call between Ltmp289 and Ltmp290
	.uleb128 Ltmp291-Lfunc_begin84  ##     jumps to Ltmp291
	.byte	1                       ##   On action: 1
Lcst_end6:
	.byte	1                       ## >> Action Record 1 <<
                                        ##   Catch TypeInfo 1
	.byte	0                       ##   No further actions
	.p2align	2
                                        ## >> Catch TypeInfos <<
	.long	0                       ## TypeInfo 1
Lttbase3:
	.p2align	2
                                        ## -- End function
	.section	__TEXT,__text,regular,pure_instructions
	.p2align	4, 0x90         ## -- Begin function _ZNSt3__1L19__libcpp_deallocateEPvmm
__ZNSt3__1L19__libcpp_deallocateEPvmm:  ## @_ZNSt3__1L19__libcpp_deallocateEPvmm
Lfunc_begin85:
	.loc	69 339 0 is_stmt 1      ## /Library/Developer/CommandLineTools/usr/bin/../include/c++/v1/new:339:0
	.cfi_startproc
## %bb.0:
	pushq	%rbp
	.cfi_def_cfa_offset 16
	.cfi_offset %rbp, -16
	movq	%rsp, %rbp
	.cfi_def_cfa_register %rbp
	subq	$32, %rsp
	movq	%rdi, -8(%rbp)
	movq	%rsi, -16(%rbp)
	movq	%rdx, -24(%rbp)
Ltmp294:
	.loc	69 340 56 prologue_end  ## /Library/Developer/CommandLineTools/usr/bin/../include/c++/v1/new:340:56
	movq	-8(%rbp), %rdi
	.loc	69 340 63 is_stmt 0     ## /Library/Developer/CommandLineTools/usr/bin/../include/c++/v1/new:340:63
	movq	-16(%rbp), %rsi
	.loc	69 340 71               ## /Library/Developer/CommandLineTools/usr/bin/../include/c++/v1/new:340:71
	movq	-24(%rbp), %rdx
	.loc	69 340 3                ## /Library/Developer/CommandLineTools/usr/bin/../include/c++/v1/new:340:3
	callq	__ZNSt3__117_DeallocateCaller33__do_deallocate_handle_size_alignEPvmm
	.loc	69 341 1 is_stmt 1      ## /Library/Developer/CommandLineTools/usr/bin/../include/c++/v1/new:341:1
	addq	$32, %rsp
	popq	%rbp
	retq
Ltmp295:
Lfunc_end85:
	.cfi_endproc
                                        ## -- End function
	.p2align	4, 0x90         ## -- Begin function _ZNSt3__117_DeallocateCaller33__do_deallocate_handle_size_alignEPvmm
__ZNSt3__117_DeallocateCaller33__do_deallocate_handle_size_alignEPvmm: ## @_ZNSt3__117_DeallocateCaller33__do_deallocate_handle_size_alignEPvmm
Lfunc_begin86:
	.loc	69 259 0                ## /Library/Developer/CommandLineTools/usr/bin/../include/c++/v1/new:259:0
	.cfi_startproc
## %bb.0:
	pushq	%rbp
	.cfi_def_cfa_offset 16
	.cfi_offset %rbp, -16
	movq	%rsp, %rbp
	.cfi_def_cfa_register %rbp
	subq	$32, %rsp
	movq	%rdi, -8(%rbp)
	movq	%rsi, -16(%rbp)
	movq	%rdx, -24(%rbp)
Ltmp296:
	.loc	69 262 40 prologue_end  ## /Library/Developer/CommandLineTools/usr/bin/../include/c++/v1/new:262:40
	movq	-8(%rbp), %rdi
	.loc	69 262 47 is_stmt 0     ## /Library/Developer/CommandLineTools/usr/bin/../include/c++/v1/new:262:47
	movq	-16(%rbp), %rsi
	.loc	69 262 12               ## /Library/Developer/CommandLineTools/usr/bin/../include/c++/v1/new:262:12
	callq	__ZNSt3__117_DeallocateCaller27__do_deallocate_handle_sizeEPvm
	.loc	69 262 5                ## /Library/Developer/CommandLineTools/usr/bin/../include/c++/v1/new:262:5
	addq	$32, %rsp
	popq	%rbp
	retq
Ltmp297:
Lfunc_end86:
	.cfi_endproc
                                        ## -- End function
	.globl	__ZNSt3__117_DeallocateCaller27__do_deallocate_handle_sizeEPvm ## -- Begin function _ZNSt3__117_DeallocateCaller27__do_deallocate_handle_sizeEPvm
	.weak_definition	__ZNSt3__117_DeallocateCaller27__do_deallocate_handle_sizeEPvm
	.p2align	4, 0x90
__ZNSt3__117_DeallocateCaller27__do_deallocate_handle_sizeEPvm: ## @_ZNSt3__117_DeallocateCaller27__do_deallocate_handle_sizeEPvm
Lfunc_begin87:
	.loc	69 289 0 is_stmt 1      ## /Library/Developer/CommandLineTools/usr/bin/../include/c++/v1/new:289:0
	.cfi_startproc
## %bb.0:
	pushq	%rbp
	.cfi_def_cfa_offset 16
	.cfi_offset %rbp, -16
	movq	%rsp, %rbp
	.cfi_def_cfa_register %rbp
	subq	$16, %rsp
	movq	%rdi, -8(%rbp)
	movq	%rsi, -16(%rbp)
Ltmp298:
	.loc	69 292 22 prologue_end  ## /Library/Developer/CommandLineTools/usr/bin/../include/c++/v1/new:292:22
	movq	-8(%rbp), %rdi
	.loc	69 292 12 is_stmt 0     ## /Library/Developer/CommandLineTools/usr/bin/../include/c++/v1/new:292:12
	callq	__ZNSt3__117_DeallocateCaller9__do_callEPv
	.loc	69 292 5                ## /Library/Developer/CommandLineTools/usr/bin/../include/c++/v1/new:292:5
	addq	$16, %rsp
	popq	%rbp
	retq
Ltmp299:
Lfunc_end87:
	.cfi_endproc
                                        ## -- End function
	.globl	__ZNSt3__117_DeallocateCaller9__do_callEPv ## -- Begin function _ZNSt3__117_DeallocateCaller9__do_callEPv
	.weak_definition	__ZNSt3__117_DeallocateCaller9__do_callEPv
	.p2align	4, 0x90
__ZNSt3__117_DeallocateCaller9__do_callEPv: ## @_ZNSt3__117_DeallocateCaller9__do_callEPv
Lfunc_begin88:
	.loc	69 330 0 is_stmt 1      ## /Library/Developer/CommandLineTools/usr/bin/../include/c++/v1/new:330:0
	.cfi_startproc
## %bb.0:
	pushq	%rbp
	.cfi_def_cfa_offset 16
	.cfi_offset %rbp, -16
	movq	%rsp, %rbp
	.cfi_def_cfa_register %rbp
	subq	$16, %rsp
	movq	%rdi, -8(%rbp)
Ltmp300:
	.loc	69 334 38 prologue_end  ## /Library/Developer/CommandLineTools/usr/bin/../include/c++/v1/new:334:38
	movq	-8(%rbp), %rdi
	.loc	69 334 12 is_stmt 0     ## /Library/Developer/CommandLineTools/usr/bin/../include/c++/v1/new:334:12
	callq	__ZdlPv
	.loc	69 334 5                ## /Library/Developer/CommandLineTools/usr/bin/../include/c++/v1/new:334:5
	addq	$16, %rsp
	popq	%rbp
	retq
Ltmp301:
Lfunc_end88:
	.cfi_endproc
                                        ## -- End function
	.p2align	4, 0x90         ## -- Begin function _ZNSt3__16vectorIiNS_9allocatorIiEEED2Ev
__ZNSt3__16vectorIiNS_9allocatorIiEEED2Ev: ## @_ZNSt3__16vectorIiNS_9allocatorIiEEED2Ev
Lfunc_begin89:
	.loc	18 550 0 is_stmt 1      ## /Library/Developer/CommandLineTools/usr/bin/../include/c++/v1/vector:550:0
	.cfi_startproc
	.cfi_personality 155, ___gxx_personality_v0
	.cfi_lsda 16, Lexception7
## %bb.0:
	pushq	%rbp
	.cfi_def_cfa_offset 16
	.cfi_offset %rbp, -16
	movq	%rsp, %rbp
	.cfi_def_cfa_register %rbp
	subq	$32, %rsp
	movq	%rdi, -8(%rbp)
	movq	-8(%rbp), %rax
Ltmp302:
Ltmp305:
	.loc	18 551 9 prologue_end   ## /Library/Developer/CommandLineTools/usr/bin/../include/c++/v1/vector:551:9
	movq	%rax, %rdi
	movq	%rax, -32(%rbp)         ## 8-byte Spill
	callq	__ZNKSt3__16vectorIiNS_9allocatorIiEEE17__annotate_deleteEv
Ltmp303:
	jmp	LBB89_1
LBB89_1:
	.loc	18 0 9 is_stmt 0        ## /Library/Developer/CommandLineTools/usr/bin/../include/c++/v1/vector:0:9
	movq	-32(%rbp), %rax         ## 8-byte Reload
	.loc	18 555 5 is_stmt 1      ## /Library/Developer/CommandLineTools/usr/bin/../include/c++/v1/vector:555:5
	movq	%rax, %rdi
	callq	__ZNSt3__113__vector_baseIiNS_9allocatorIiEEED2Ev
Ltmp306:
	.loc	18 555 5 is_stmt 0      ## /Library/Developer/CommandLineTools/usr/bin/../include/c++/v1/vector:555:5
	addq	$32, %rsp
	popq	%rbp
	retq
LBB89_2:
Ltmp304:
                                        ## kill: def $edx killed $edx killed $rdx
Ltmp307:
	.loc	18 555 5                ## /Library/Developer/CommandLineTools/usr/bin/../include/c++/v1/vector:555:5
	movq	%rax, -16(%rbp)
	movl	%edx, -20(%rbp)
	movq	-32(%rbp), %rax         ## 8-byte Reload
	movq	%rax, %rdi
	callq	__ZNSt3__113__vector_baseIiNS_9allocatorIiEEED2Ev
## %bb.3:
	movq	-16(%rbp), %rdi
	callq	___clang_call_terminate
Ltmp308:
Lfunc_end89:
	.cfi_endproc
	.section	__TEXT,__gcc_except_tab
	.p2align	2
GCC_except_table89:
Lexception7:
	.byte	255                     ## @LPStart Encoding = omit
	.byte	155                     ## @TType Encoding = indirect pcrel sdata4
	.uleb128 Lttbase4-Lttbaseref4
Lttbaseref4:
	.byte	1                       ## Call site Encoding = uleb128
	.uleb128 Lcst_end7-Lcst_begin7
Lcst_begin7:
	.uleb128 Ltmp302-Lfunc_begin89  ## >> Call Site 1 <<
	.uleb128 Ltmp303-Ltmp302        ##   Call between Ltmp302 and Ltmp303
	.uleb128 Ltmp304-Lfunc_begin89  ##     jumps to Ltmp304
	.byte	1                       ##   On action: 1
Lcst_end7:
	.byte	1                       ## >> Action Record 1 <<
                                        ##   Catch TypeInfo 1
	.byte	0                       ##   No further actions
	.p2align	2
                                        ## >> Catch TypeInfos <<
	.long	0                       ## TypeInfo 1
Lttbase4:
	.p2align	2
                                        ## -- End function
	.section	__TEXT,__text,regular,pure_instructions
	.p2align	4, 0x90         ## -- Begin function _ZNKSt3__16vectorIiNS_9allocatorIiEEE17__annotate_deleteEv
__ZNKSt3__16vectorIiNS_9allocatorIiEEE17__annotate_deleteEv: ## @_ZNKSt3__16vectorIiNS_9allocatorIiEEE17__annotate_deleteEv
Lfunc_begin90:
	.loc	18 871 0 is_stmt 1      ## /Library/Developer/CommandLineTools/usr/bin/../include/c++/v1/vector:871:0
	.cfi_startproc
## %bb.0:
	pushq	%rbp
	.cfi_def_cfa_offset 16
	.cfi_offset %rbp, -16
	movq	%rsp, %rbp
	.cfi_def_cfa_register %rbp
	subq	$80, %rsp
	movq	%rdi, -8(%rbp)
	movq	-8(%rbp), %rax
Ltmp309:
	.loc	18 872 39 prologue_end  ## /Library/Developer/CommandLineTools/usr/bin/../include/c++/v1/vector:872:39
	movq	%rax, %rdi
	movq	%rax, -16(%rbp)         ## 8-byte Spill
	callq	__ZNKSt3__16vectorIiNS_9allocatorIiEEE4dataEv
	movq	-16(%rbp), %rdi         ## 8-byte Reload
	movq	%rax, -24(%rbp)         ## 8-byte Spill
	.loc	18 872 47 is_stmt 0     ## /Library/Developer/CommandLineTools/usr/bin/../include/c++/v1/vector:872:47
	callq	__ZNKSt3__16vectorIiNS_9allocatorIiEEE4dataEv
	movq	-16(%rbp), %rdi         ## 8-byte Reload
	movq	%rax, -32(%rbp)         ## 8-byte Spill
	.loc	18 872 56               ## /Library/Developer/CommandLineTools/usr/bin/../include/c++/v1/vector:872:56
	callq	__ZNKSt3__16vectorIiNS_9allocatorIiEEE8capacityEv
	.loc	18 872 54               ## /Library/Developer/CommandLineTools/usr/bin/../include/c++/v1/vector:872:54
	shlq	$2, %rax
	movq	-32(%rbp), %rcx         ## 8-byte Reload
	addq	%rax, %rcx
	movq	-16(%rbp), %rdi         ## 8-byte Reload
	movq	%rcx, -40(%rbp)         ## 8-byte Spill
	.loc	18 873 39 is_stmt 1     ## /Library/Developer/CommandLineTools/usr/bin/../include/c++/v1/vector:873:39
	callq	__ZNKSt3__16vectorIiNS_9allocatorIiEEE4dataEv
	movq	-16(%rbp), %rdi         ## 8-byte Reload
	movq	%rax, -48(%rbp)         ## 8-byte Spill
	.loc	18 873 48 is_stmt 0     ## /Library/Developer/CommandLineTools/usr/bin/../include/c++/v1/vector:873:48
	callq	__ZNKSt3__16vectorIiNS_9allocatorIiEEE4sizeEv
	.loc	18 873 46               ## /Library/Developer/CommandLineTools/usr/bin/../include/c++/v1/vector:873:46
	shlq	$2, %rax
	movq	-48(%rbp), %rcx         ## 8-byte Reload
	addq	%rax, %rcx
	movq	-16(%rbp), %rdi         ## 8-byte Reload
	movq	%rcx, -56(%rbp)         ## 8-byte Spill
	.loc	18 873 56               ## /Library/Developer/CommandLineTools/usr/bin/../include/c++/v1/vector:873:56
	callq	__ZNKSt3__16vectorIiNS_9allocatorIiEEE4dataEv
	movq	-16(%rbp), %rdi         ## 8-byte Reload
	movq	%rax, -64(%rbp)         ## 8-byte Spill
	.loc	18 873 65               ## /Library/Developer/CommandLineTools/usr/bin/../include/c++/v1/vector:873:65
	callq	__ZNKSt3__16vectorIiNS_9allocatorIiEEE8capacityEv
	.loc	18 873 63               ## /Library/Developer/CommandLineTools/usr/bin/../include/c++/v1/vector:873:63
	shlq	$2, %rax
	movq	-64(%rbp), %rcx         ## 8-byte Reload
	addq	%rax, %rcx
	movq	-16(%rbp), %rdi         ## 8-byte Reload
	movq	-24(%rbp), %rsi         ## 8-byte Reload
	movq	-40(%rbp), %rdx         ## 8-byte Reload
	movq	-56(%rbp), %rax         ## 8-byte Reload
	movq	%rcx, -72(%rbp)         ## 8-byte Spill
	.loc	18 872 7 is_stmt 1      ## /Library/Developer/CommandLineTools/usr/bin/../include/c++/v1/vector:872:7
	movq	%rax, %rcx
	movq	-72(%rbp), %r8          ## 8-byte Reload
	callq	__ZNKSt3__16vectorIiNS_9allocatorIiEEE31__annotate_contiguous_containerEPKvS5_S5_S5_
	.loc	18 874 5                ## /Library/Developer/CommandLineTools/usr/bin/../include/c++/v1/vector:874:5
	addq	$80, %rsp
	popq	%rbp
	retq
Ltmp310:
Lfunc_end90:
	.cfi_endproc
                                        ## -- End function
	.p2align	4, 0x90         ## -- Begin function _ZNKSt3__16vectorIiNS_9allocatorIiEEE4sizeEv
__ZNKSt3__16vectorIiNS_9allocatorIiEEE4sizeEv: ## @_ZNKSt3__16vectorIiNS_9allocatorIiEEE4sizeEv
Lfunc_begin91:
	.loc	18 656 0                ## /Library/Developer/CommandLineTools/usr/bin/../include/c++/v1/vector:656:0
	.cfi_startproc
## %bb.0:
	pushq	%rbp
	.cfi_def_cfa_offset 16
	.cfi_offset %rbp, -16
	movq	%rsp, %rbp
	.cfi_def_cfa_register %rbp
	movq	%rdi, -8(%rbp)
	movq	-8(%rbp), %rax
Ltmp311:
	.loc	18 656 46 prologue_end  ## /Library/Developer/CommandLineTools/usr/bin/../include/c++/v1/vector:656:46
	movq	8(%rax), %rcx
	.loc	18 656 61 is_stmt 0     ## /Library/Developer/CommandLineTools/usr/bin/../include/c++/v1/vector:656:61
	movq	(%rax), %rax
	.loc	18 656 53               ## /Library/Developer/CommandLineTools/usr/bin/../include/c++/v1/vector:656:53
	subq	%rax, %rcx
	sarq	$2, %rcx
	.loc	18 656 10               ## /Library/Developer/CommandLineTools/usr/bin/../include/c++/v1/vector:656:10
	movq	%rcx, %rax
	popq	%rbp
	retq
Ltmp312:
Lfunc_end91:
	.cfi_endproc
                                        ## -- End function
	.p2align	4, 0x90         ## -- Begin function _ZNSt3__116allocator_traitsINS_9allocatorIiEEE9constructIiJiEEEvRS2_PT_DpOT0_
__ZNSt3__116allocator_traitsINS_9allocatorIiEEE9constructIiJiEEEvRS2_PT_DpOT0_: ## @_ZNSt3__116allocator_traitsINS_9allocatorIiEEE9constructIiJiEEEvRS2_PT_DpOT0_
Lfunc_begin92:
	.loc	8 1560 0 is_stmt 1      ## /Library/Developer/CommandLineTools/usr/bin/../include/c++/v1/memory:1560:0
	.cfi_startproc
## %bb.0:
	pushq	%rbp
	.cfi_def_cfa_offset 16
	.cfi_offset %rbp, -16
	movq	%rsp, %rbp
	.cfi_def_cfa_register %rbp
	subq	$64, %rsp
	movq	%rdi, -8(%rbp)
	movq	%rsi, -16(%rbp)
	movq	%rdx, -24(%rbp)
Ltmp313:
	.loc	8 1561 26 prologue_end  ## /Library/Developer/CommandLineTools/usr/bin/../include/c++/v1/memory:1561:26
	movq	-8(%rbp), %rdi
	.loc	8 1561 31 is_stmt 0     ## /Library/Developer/CommandLineTools/usr/bin/../include/c++/v1/memory:1561:31
	movq	-16(%rbp), %rsi
	.loc	8 1561 58               ## /Library/Developer/CommandLineTools/usr/bin/../include/c++/v1/memory:1561:58
	movq	-24(%rbp), %rax
	movq	%rdi, -48(%rbp)         ## 8-byte Spill
	.loc	8 1561 36               ## /Library/Developer/CommandLineTools/usr/bin/../include/c++/v1/memory:1561:36
	movq	%rax, %rdi
	movq	%rsi, -56(%rbp)         ## 8-byte Spill
	callq	__ZNSt3__1L7forwardIiEEOT_RNS_16remove_referenceIS1_E4typeE
	movq	-48(%rbp), %rdi         ## 8-byte Reload
	movq	-56(%rbp), %rsi         ## 8-byte Reload
	.loc	8 1560 14 is_stmt 1     ## /Library/Developer/CommandLineTools/usr/bin/../include/c++/v1/memory:1560:14
	movq	%rax, %rdx
	callq	__ZNSt3__116allocator_traitsINS_9allocatorIiEEE11__constructIiJiEEEvNS_17integral_constantIbLb1EEERS2_PT_DpOT0_
	.loc	8 1561 70               ## /Library/Developer/CommandLineTools/usr/bin/../include/c++/v1/memory:1561:70
	addq	$64, %rsp
	popq	%rbp
	retq
Ltmp314:
Lfunc_end92:
	.cfi_endproc
                                        ## -- End function
	.p2align	4, 0x90         ## -- Begin function _ZNSt3__1L4moveIRiEEONS_16remove_referenceIT_E4typeEOS3_
__ZNSt3__1L4moveIRiEEONS_16remove_referenceIT_E4typeEOS3_: ## @_ZNSt3__1L4moveIRiEEONS_16remove_referenceIT_E4typeEOS3_
Lfunc_begin93:
	.loc	9 2351 0                ## /Library/Developer/CommandLineTools/usr/bin/../include/c++/v1/type_traits:2351:0
	.cfi_startproc
## %bb.0:
	pushq	%rbp
	.cfi_def_cfa_offset 16
	.cfi_offset %rbp, -16
	movq	%rsp, %rbp
	.cfi_def_cfa_register %rbp
	movq	%rdi, -8(%rbp)
Ltmp315:
	.loc	9 2353 31 prologue_end  ## /Library/Developer/CommandLineTools/usr/bin/../include/c++/v1/type_traits:2353:31
	movq	-8(%rbp), %rax
	.loc	9 2353 5 is_stmt 0      ## /Library/Developer/CommandLineTools/usr/bin/../include/c++/v1/type_traits:2353:5
	popq	%rbp
	retq
Ltmp316:
Lfunc_end93:
	.cfi_endproc
                                        ## -- End function
	.globl	__ZNSt3__16vectorIiNS_9allocatorIiEEE21__push_back_slow_pathIiEEvOT_ ## -- Begin function _ZNSt3__16vectorIiNS_9allocatorIiEEE21__push_back_slow_pathIiEEvOT_
	.weak_definition	__ZNSt3__16vectorIiNS_9allocatorIiEEE21__push_back_slow_pathIiEEvOT_
	.p2align	4, 0x90
__ZNSt3__16vectorIiNS_9allocatorIiEEE21__push_back_slow_pathIiEEvOT_: ## @_ZNSt3__16vectorIiNS_9allocatorIiEEE21__push_back_slow_pathIiEEvOT_
Lfunc_begin94:
	.loc	18 1615 0 is_stmt 1     ## /Library/Developer/CommandLineTools/usr/bin/../include/c++/v1/vector:1615:0
	.cfi_startproc
	.cfi_personality 155, ___gxx_personality_v0
	.cfi_lsda 16, Lexception8
## %bb.0:
	pushq	%rbp
	.cfi_def_cfa_offset 16
	.cfi_offset %rbp, -16
	movq	%rsp, %rbp
	.cfi_def_cfa_register %rbp
	subq	$112, %rsp
	movq	%rdi, -8(%rbp)
	movq	%rsi, -16(%rbp)
	movq	-8(%rbp), %rax
Ltmp322:
	.loc	18 1616 33 prologue_end ## /Library/Developer/CommandLineTools/usr/bin/../include/c++/v1/vector:1616:33
	movq	%rax, %rdi
	movq	%rax, -88(%rbp)         ## 8-byte Spill
	callq	__ZNSt3__113__vector_baseIiNS_9allocatorIiEEE7__allocEv
	.loc	18 1616 21 is_stmt 0    ## /Library/Developer/CommandLineTools/usr/bin/../include/c++/v1/vector:1616:21
	movq	%rax, -24(%rbp)
	movq	-88(%rbp), %rdi         ## 8-byte Reload
	.loc	18 1617 65 is_stmt 1    ## /Library/Developer/CommandLineTools/usr/bin/../include/c++/v1/vector:1617:65
	callq	__ZNKSt3__16vectorIiNS_9allocatorIiEEE4sizeEv
	.loc	18 1617 72 is_stmt 0    ## /Library/Developer/CommandLineTools/usr/bin/../include/c++/v1/vector:1617:72
	incq	%rax
	movq	-88(%rbp), %rdi         ## 8-byte Reload
	.loc	18 1617 53              ## /Library/Developer/CommandLineTools/usr/bin/../include/c++/v1/vector:1617:53
	movq	%rax, %rsi
	callq	__ZNKSt3__16vectorIiNS_9allocatorIiEEE11__recommendEm
	movq	-88(%rbp), %rdi         ## 8-byte Reload
	movq	%rax, -96(%rbp)         ## 8-byte Spill
	.loc	18 1617 78              ## /Library/Developer/CommandLineTools/usr/bin/../include/c++/v1/vector:1617:78
	callq	__ZNKSt3__16vectorIiNS_9allocatorIiEEE4sizeEv
	.loc	18 1617 86              ## /Library/Developer/CommandLineTools/usr/bin/../include/c++/v1/vector:1617:86
	movq	-24(%rbp), %rcx
	leaq	-64(%rbp), %rdi
	movq	-96(%rbp), %rsi         ## 8-byte Reload
	.loc	18 1617 49              ## /Library/Developer/CommandLineTools/usr/bin/../include/c++/v1/vector:1617:49
	movq	%rax, %rdx
	callq	__ZNSt3__114__split_bufferIiRNS_9allocatorIiEEEC1EmmS3_
	.loc	18 1619 31 is_stmt 1    ## /Library/Developer/CommandLineTools/usr/bin/../include/c++/v1/vector:1619:31
	movq	-24(%rbp), %rdi
	.loc	18 1619 64 is_stmt 0    ## /Library/Developer/CommandLineTools/usr/bin/../include/c++/v1/vector:1619:64
	movq	-48(%rbp), %rax
	movq	%rdi, -104(%rbp)        ## 8-byte Spill
	.loc	18 1619 36              ## /Library/Developer/CommandLineTools/usr/bin/../include/c++/v1/vector:1619:36
	movq	%rax, %rdi
	callq	__ZNSt3__1L16__to_raw_pointerIiEEPT_S2_
	.loc	18 1619 93              ## /Library/Developer/CommandLineTools/usr/bin/../include/c++/v1/vector:1619:93
	movq	-16(%rbp), %rdi
	movq	%rax, -112(%rbp)        ## 8-byte Spill
	.loc	18 1619 73              ## /Library/Developer/CommandLineTools/usr/bin/../include/c++/v1/vector:1619:73
	callq	__ZNSt3__1L7forwardIiEEOT_RNS_16remove_referenceIS1_E4typeE
Ltmp317:
	movq	-104(%rbp), %rdi        ## 8-byte Reload
	movq	-112(%rbp), %rsi        ## 8-byte Reload
	.loc	18 1619 5               ## /Library/Developer/CommandLineTools/usr/bin/../include/c++/v1/vector:1619:5
	movq	%rax, %rdx
	callq	__ZNSt3__116allocator_traitsINS_9allocatorIiEEE9constructIiJiEEEvRS2_PT_DpOT0_
Ltmp318:
	jmp	LBB94_1
LBB94_1:
	.loc	18 1620 15 is_stmt 1    ## /Library/Developer/CommandLineTools/usr/bin/../include/c++/v1/vector:1620:15
	movq	-48(%rbp), %rax
	addq	$4, %rax
	movq	%rax, -48(%rbp)
Ltmp319:
	leaq	-64(%rbp), %rsi
	movq	-88(%rbp), %rdi         ## 8-byte Reload
	.loc	18 1621 5               ## /Library/Developer/CommandLineTools/usr/bin/../include/c++/v1/vector:1621:5
	callq	__ZNSt3__16vectorIiNS_9allocatorIiEEE26__swap_out_circular_bufferERNS_14__split_bufferIiRS2_EE
Ltmp320:
	jmp	LBB94_2
LBB94_2:
	.loc	18 1622 1               ## /Library/Developer/CommandLineTools/usr/bin/../include/c++/v1/vector:1622:1
	leaq	-64(%rbp), %rdi
	callq	__ZNSt3__114__split_bufferIiRNS_9allocatorIiEEED1Ev
	addq	$112, %rsp
	popq	%rbp
	retq
LBB94_3:
Ltmp321:
                                        ## kill: def $edx killed $edx killed $rdx
	movq	%rax, -72(%rbp)
	movl	%edx, -76(%rbp)
	leaq	-64(%rbp), %rdi
	callq	__ZNSt3__114__split_bufferIiRNS_9allocatorIiEEED1Ev
## %bb.4:
	movq	-72(%rbp), %rdi
	callq	__Unwind_Resume
	ud2
Ltmp323:
Lfunc_end94:
	.cfi_endproc
	.section	__TEXT,__gcc_except_tab
	.p2align	2
GCC_except_table94:
Lexception8:
	.byte	255                     ## @LPStart Encoding = omit
	.byte	255                     ## @TType Encoding = omit
	.byte	1                       ## Call site Encoding = uleb128
	.uleb128 Lcst_end8-Lcst_begin8
Lcst_begin8:
	.uleb128 Lfunc_begin94-Lfunc_begin94 ## >> Call Site 1 <<
	.uleb128 Ltmp317-Lfunc_begin94  ##   Call between Lfunc_begin94 and Ltmp317
	.byte	0                       ##     has no landing pad
	.byte	0                       ##   On action: cleanup
	.uleb128 Ltmp317-Lfunc_begin94  ## >> Call Site 2 <<
	.uleb128 Ltmp320-Ltmp317        ##   Call between Ltmp317 and Ltmp320
	.uleb128 Ltmp321-Lfunc_begin94  ##     jumps to Ltmp321
	.byte	0                       ##   On action: cleanup
	.uleb128 Ltmp320-Lfunc_begin94  ## >> Call Site 3 <<
	.uleb128 Lfunc_end94-Ltmp320    ##   Call between Ltmp320 and Lfunc_end94
	.byte	0                       ##     has no landing pad
	.byte	0                       ##   On action: cleanup
Lcst_end8:
	.p2align	2
                                        ## -- End function
	.section	__TEXT,__text,regular,pure_instructions
	.p2align	4, 0x90         ## -- Begin function _ZNSt3__116allocator_traitsINS_9allocatorIiEEE11__constructIiJiEEEvNS_17integral_constantIbLb1EEERS2_PT_DpOT0_
__ZNSt3__116allocator_traitsINS_9allocatorIiEEE11__constructIiJiEEEvNS_17integral_constantIbLb1EEERS2_PT_DpOT0_: ## @_ZNSt3__116allocator_traitsINS_9allocatorIiEEE11__constructIiJiEEEvNS_17integral_constantIbLb1EEERS2_PT_DpOT0_
Lfunc_begin95:
	.loc	8 1717 0                ## /Library/Developer/CommandLineTools/usr/bin/../include/c++/v1/memory:1717:0
	.cfi_startproc
## %bb.0:
	pushq	%rbp
	.cfi_def_cfa_offset 16
	.cfi_offset %rbp, -16
	movq	%rsp, %rbp
	.cfi_def_cfa_register %rbp
	subq	$48, %rsp
	movq	%rdi, -16(%rbp)
	movq	%rsi, -24(%rbp)
	movq	%rdx, -32(%rbp)
Ltmp324:
	.loc	8 1717 14 prologue_end  ## /Library/Developer/CommandLineTools/usr/bin/../include/c++/v1/memory:1717:14
	movq	-16(%rbp), %rdi
	.loc	8 1717 28 is_stmt 0     ## /Library/Developer/CommandLineTools/usr/bin/../include/c++/v1/memory:1717:28
	movq	-24(%rbp), %rsi
	.loc	8 1717 55               ## /Library/Developer/CommandLineTools/usr/bin/../include/c++/v1/memory:1717:55
	movq	-32(%rbp), %rax
	movq	%rdi, -40(%rbp)         ## 8-byte Spill
	.loc	8 1717 33               ## /Library/Developer/CommandLineTools/usr/bin/../include/c++/v1/memory:1717:33
	movq	%rax, %rdi
	movq	%rsi, -48(%rbp)         ## 8-byte Spill
	callq	__ZNSt3__1L7forwardIiEEOT_RNS_16remove_referenceIS1_E4typeE
	movq	-40(%rbp), %rdi         ## 8-byte Reload
	movq	-48(%rbp), %rsi         ## 8-byte Reload
	.loc	8 1717 18               ## /Library/Developer/CommandLineTools/usr/bin/../include/c++/v1/memory:1717:18
	movq	%rax, %rdx
	callq	__ZNSt3__19allocatorIiE9constructIiJiEEEvPT_DpOT0_
	.loc	8 1717 67               ## /Library/Developer/CommandLineTools/usr/bin/../include/c++/v1/memory:1717:67
	addq	$48, %rsp
	popq	%rbp
	retq
Ltmp325:
Lfunc_end95:
	.cfi_endproc
                                        ## -- End function
	.p2align	4, 0x90         ## -- Begin function _ZNSt3__1L7forwardIiEEOT_RNS_16remove_referenceIS1_E4typeE
__ZNSt3__1L7forwardIiEEOT_RNS_16remove_referenceIS1_E4typeE: ## @_ZNSt3__1L7forwardIiEEOT_RNS_16remove_referenceIS1_E4typeE
Lfunc_begin96:
	.loc	9 2360 0 is_stmt 1      ## /Library/Developer/CommandLineTools/usr/bin/../include/c++/v1/type_traits:2360:0
	.cfi_startproc
## %bb.0:
	pushq	%rbp
	.cfi_def_cfa_offset 16
	.cfi_offset %rbp, -16
	movq	%rsp, %rbp
	.cfi_def_cfa_register %rbp
	movq	%rdi, -8(%rbp)
Ltmp326:
	.loc	9 2361 31 prologue_end  ## /Library/Developer/CommandLineTools/usr/bin/../include/c++/v1/type_traits:2361:31
	movq	-8(%rbp), %rax
	.loc	9 2361 5 is_stmt 0      ## /Library/Developer/CommandLineTools/usr/bin/../include/c++/v1/type_traits:2361:5
	popq	%rbp
	retq
Ltmp327:
Lfunc_end96:
	.cfi_endproc
                                        ## -- End function
	.p2align	4, 0x90         ## -- Begin function _ZNSt3__19allocatorIiE9constructIiJiEEEvPT_DpOT0_
__ZNSt3__19allocatorIiE9constructIiJiEEEvPT_DpOT0_: ## @_ZNSt3__19allocatorIiE9constructIiJiEEEvPT_DpOT0_
Lfunc_begin97:
	.loc	8 1824 0 is_stmt 1      ## /Library/Developer/CommandLineTools/usr/bin/../include/c++/v1/memory:1824:0
	.cfi_startproc
## %bb.0:
	pushq	%rbp
	.cfi_def_cfa_offset 16
	.cfi_offset %rbp, -16
	movq	%rsp, %rbp
	.cfi_def_cfa_register %rbp
	subq	$32, %rsp
	movq	%rdi, -8(%rbp)
	movq	%rsi, -16(%rbp)
	movq	%rdx, -24(%rbp)
Ltmp328:
	.loc	8 1825 26 prologue_end  ## /Library/Developer/CommandLineTools/usr/bin/../include/c++/v1/memory:1825:26
	movq	-16(%rbp), %rax
	.loc	8 1825 57 is_stmt 0     ## /Library/Developer/CommandLineTools/usr/bin/../include/c++/v1/memory:1825:57
	movq	-24(%rbp), %rdi
	movq	%rax, -32(%rbp)         ## 8-byte Spill
	.loc	8 1825 35               ## /Library/Developer/CommandLineTools/usr/bin/../include/c++/v1/memory:1825:35
	callq	__ZNSt3__1L7forwardIiEEOT_RNS_16remove_referenceIS1_E4typeE
	movl	(%rax), %ecx
	movq	-32(%rbp), %rax         ## 8-byte Reload
	.loc	8 1825 13               ## /Library/Developer/CommandLineTools/usr/bin/../include/c++/v1/memory:1825:13
	movl	%ecx, (%rax)
	.loc	8 1826 9 is_stmt 1      ## /Library/Developer/CommandLineTools/usr/bin/../include/c++/v1/memory:1826:9
	addq	$32, %rsp
	popq	%rbp
	retq
Ltmp329:
Lfunc_end97:
	.cfi_endproc
                                        ## -- End function
	.p2align	4, 0x90         ## -- Begin function _ZNKSt3__16vectorIiNS_9allocatorIiEEE11__recommendEm
__ZNKSt3__16vectorIiNS_9allocatorIiEEE11__recommendEm: ## @_ZNKSt3__16vectorIiNS_9allocatorIiEEE11__recommendEm
Lfunc_begin98:
	.loc	18 1006 0               ## /Library/Developer/CommandLineTools/usr/bin/../include/c++/v1/vector:1006:0
	.cfi_startproc
## %bb.0:
	pushq	%rbp
	.cfi_def_cfa_offset 16
	.cfi_offset %rbp, -16
	movq	%rsp, %rbp
	.cfi_def_cfa_register %rbp
	subq	$64, %rsp
	movq	%rdi, -16(%rbp)
	movq	%rsi, -24(%rbp)
	movq	-16(%rbp), %rax
Ltmp330:
	.loc	18 1007 28 prologue_end ## /Library/Developer/CommandLineTools/usr/bin/../include/c++/v1/vector:1007:28
	movq	%rax, %rdi
	movq	%rax, -56(%rbp)         ## 8-byte Spill
	callq	__ZNKSt3__16vectorIiNS_9allocatorIiEEE8max_sizeEv
	.loc	18 1007 21 is_stmt 0    ## /Library/Developer/CommandLineTools/usr/bin/../include/c++/v1/vector:1007:21
	movq	%rax, -32(%rbp)
Ltmp331:
	.loc	18 1008 9 is_stmt 1     ## /Library/Developer/CommandLineTools/usr/bin/../include/c++/v1/vector:1008:9
	movq	-24(%rbp), %rax
	.loc	18 1008 20 is_stmt 0    ## /Library/Developer/CommandLineTools/usr/bin/../include/c++/v1/vector:1008:20
	cmpq	-32(%rbp), %rax
Ltmp332:
	.loc	18 1008 9               ## /Library/Developer/CommandLineTools/usr/bin/../include/c++/v1/vector:1008:9
	jbe	LBB98_2
## %bb.1:
	.loc	18 0 9                  ## /Library/Developer/CommandLineTools/usr/bin/../include/c++/v1/vector:0:9
	movq	-56(%rbp), %rdi         ## 8-byte Reload
Ltmp333:
	.loc	18 1009 15 is_stmt 1    ## /Library/Developer/CommandLineTools/usr/bin/../include/c++/v1/vector:1009:15
	callq	__ZNKSt3__120__vector_base_commonILb1EE20__throw_length_errorEv
Ltmp334:
LBB98_2:
	.loc	18 0 15 is_stmt 0       ## /Library/Developer/CommandLineTools/usr/bin/../include/c++/v1/vector:0:15
	movq	-56(%rbp), %rdi         ## 8-byte Reload
	.loc	18 1010 29 is_stmt 1    ## /Library/Developer/CommandLineTools/usr/bin/../include/c++/v1/vector:1010:29
	callq	__ZNKSt3__16vectorIiNS_9allocatorIiEEE8capacityEv
	.loc	18 1010 21 is_stmt 0    ## /Library/Developer/CommandLineTools/usr/bin/../include/c++/v1/vector:1010:21
	movq	%rax, -40(%rbp)
Ltmp335:
	.loc	18 1011 9 is_stmt 1     ## /Library/Developer/CommandLineTools/usr/bin/../include/c++/v1/vector:1011:9
	movq	-40(%rbp), %rax
	.loc	18 1011 18 is_stmt 0    ## /Library/Developer/CommandLineTools/usr/bin/../include/c++/v1/vector:1011:18
	movq	-32(%rbp), %rcx
	.loc	18 1011 23              ## /Library/Developer/CommandLineTools/usr/bin/../include/c++/v1/vector:1011:23
	shrq	$1, %rcx
	.loc	18 1011 15              ## /Library/Developer/CommandLineTools/usr/bin/../include/c++/v1/vector:1011:15
	cmpq	%rcx, %rax
Ltmp336:
	.loc	18 1011 9               ## /Library/Developer/CommandLineTools/usr/bin/../include/c++/v1/vector:1011:9
	jb	LBB98_4
## %bb.3:
Ltmp337:
	.loc	18 1012 16 is_stmt 1    ## /Library/Developer/CommandLineTools/usr/bin/../include/c++/v1/vector:1012:16
	movq	-32(%rbp), %rax
	.loc	18 1012 9 is_stmt 0     ## /Library/Developer/CommandLineTools/usr/bin/../include/c++/v1/vector:1012:9
	movq	%rax, -8(%rbp)
	jmp	LBB98_5
Ltmp338:
LBB98_4:
	.loc	18 1013 36 is_stmt 1    ## /Library/Developer/CommandLineTools/usr/bin/../include/c++/v1/vector:1013:36
	movq	-40(%rbp), %rax
	.loc	18 1013 35 is_stmt 0    ## /Library/Developer/CommandLineTools/usr/bin/../include/c++/v1/vector:1013:35
	shlq	$1, %rax
	.loc	18 1013 34              ## /Library/Developer/CommandLineTools/usr/bin/../include/c++/v1/vector:1013:34
	movq	%rax, -48(%rbp)
	.loc	18 1013 12              ## /Library/Developer/CommandLineTools/usr/bin/../include/c++/v1/vector:1013:12
	leaq	-48(%rbp), %rdi
	leaq	-24(%rbp), %rsi
	callq	__ZNSt3__1L3maxImEERKT_S3_S3_
	movq	(%rax), %rax
	.loc	18 1013 5               ## /Library/Developer/CommandLineTools/usr/bin/../include/c++/v1/vector:1013:5
	movq	%rax, -8(%rbp)
LBB98_5:
	.loc	18 1014 1 is_stmt 1     ## /Library/Developer/CommandLineTools/usr/bin/../include/c++/v1/vector:1014:1
	movq	-8(%rbp), %rax
	addq	$64, %rsp
	popq	%rbp
	retq
Ltmp339:
Lfunc_end98:
	.cfi_endproc
                                        ## -- End function
	.globl	__ZNSt3__114__split_bufferIiRNS_9allocatorIiEEEC1EmmS3_ ## -- Begin function _ZNSt3__114__split_bufferIiRNS_9allocatorIiEEEC1EmmS3_
	.weak_def_can_be_hidden	__ZNSt3__114__split_bufferIiRNS_9allocatorIiEEEC1EmmS3_
	.p2align	4, 0x90
__ZNSt3__114__split_bufferIiRNS_9allocatorIiEEEC1EmmS3_: ## @_ZNSt3__114__split_bufferIiRNS_9allocatorIiEEEC1EmmS3_
Lfunc_begin99:
	.loc	20 310 0                ## /Library/Developer/CommandLineTools/usr/bin/../include/c++/v1/__split_buffer:310:0
	.cfi_startproc
## %bb.0:
	pushq	%rbp
	.cfi_def_cfa_offset 16
	.cfi_offset %rbp, -16
	movq	%rsp, %rbp
	.cfi_def_cfa_register %rbp
	subq	$32, %rsp
	movq	%rdi, -8(%rbp)
	movq	%rsi, -16(%rbp)
	movq	%rdx, -24(%rbp)
	movq	%rcx, -32(%rbp)
	movq	-8(%rbp), %rdi
Ltmp340:
	.loc	20 310 1 prologue_end   ## /Library/Developer/CommandLineTools/usr/bin/../include/c++/v1/__split_buffer:310:1
	movq	-16(%rbp), %rsi
	movq	-24(%rbp), %rdx
	movq	-32(%rbp), %rcx
	callq	__ZNSt3__114__split_bufferIiRNS_9allocatorIiEEEC2EmmS3_
	.loc	20 314 1                ## /Library/Developer/CommandLineTools/usr/bin/../include/c++/v1/__split_buffer:314:1
	addq	$32, %rsp
	popq	%rbp
	retq
Ltmp341:
Lfunc_end99:
	.cfi_endproc
                                        ## -- End function
	.globl	__ZNSt3__16vectorIiNS_9allocatorIiEEE26__swap_out_circular_bufferERNS_14__split_bufferIiRS2_EE ## -- Begin function _ZNSt3__16vectorIiNS_9allocatorIiEEE26__swap_out_circular_bufferERNS_14__split_bufferIiRS2_EE
	.weak_definition	__ZNSt3__16vectorIiNS_9allocatorIiEEE26__swap_out_circular_bufferERNS_14__split_bufferIiRS2_EE
	.p2align	4, 0x90
__ZNSt3__16vectorIiNS_9allocatorIiEEE26__swap_out_circular_bufferERNS_14__split_bufferIiRS2_EE: ## @_ZNSt3__16vectorIiNS_9allocatorIiEEE26__swap_out_circular_bufferERNS_14__split_bufferIiRS2_EE
Lfunc_begin100:
	.loc	18 935 0                ## /Library/Developer/CommandLineTools/usr/bin/../include/c++/v1/vector:935:0
	.cfi_startproc
## %bb.0:
	pushq	%rbp
	.cfi_def_cfa_offset 16
	.cfi_offset %rbp, -16
	movq	%rsp, %rbp
	.cfi_def_cfa_register %rbp
	subq	$48, %rsp
	movq	%rdi, -8(%rbp)
	movq	%rsi, -16(%rbp)
	movq	-8(%rbp), %rax
Ltmp342:
	.loc	18 936 5 prologue_end   ## /Library/Developer/CommandLineTools/usr/bin/../include/c++/v1/vector:936:5
	movq	%rax, %rdi
	movq	%rax, -24(%rbp)         ## 8-byte Spill
	callq	__ZNKSt3__16vectorIiNS_9allocatorIiEEE17__annotate_deleteEv
	movq	-24(%rbp), %rax         ## 8-byte Reload
	.loc	18 937 48               ## /Library/Developer/CommandLineTools/usr/bin/../include/c++/v1/vector:937:48
	movq	%rax, %rdi
	callq	__ZNSt3__113__vector_baseIiNS_9allocatorIiEEE7__allocEv
	movq	-24(%rbp), %rcx         ## 8-byte Reload
	.loc	18 937 65 is_stmt 0     ## /Library/Developer/CommandLineTools/usr/bin/../include/c++/v1/vector:937:65
	movq	(%rcx), %rsi
	.loc	18 937 81               ## /Library/Developer/CommandLineTools/usr/bin/../include/c++/v1/vector:937:81
	movq	8(%rcx), %rdx
	.loc	18 937 89               ## /Library/Developer/CommandLineTools/usr/bin/../include/c++/v1/vector:937:89
	movq	-16(%rbp), %rdi
	.loc	18 937 93               ## /Library/Developer/CommandLineTools/usr/bin/../include/c++/v1/vector:937:93
	addq	$8, %rdi
	movq	%rdi, -32(%rbp)         ## 8-byte Spill
	.loc	18 937 5                ## /Library/Developer/CommandLineTools/usr/bin/../include/c++/v1/vector:937:5
	movq	%rax, %rdi
	movq	-32(%rbp), %rcx         ## 8-byte Reload
	callq	__ZNSt3__116allocator_traitsINS_9allocatorIiEEE20__construct_backwardIiEENS_9enable_ifIXaaooL_ZNS_17integral_constantIbLb1EE5valueEEntsr15__has_constructIS2_PT_S8_EE5valuesr31is_trivially_move_constructibleIS8_EE5valueEvE4typeERS2_S9_S9_RS9_
	movq	-24(%rbp), %rax         ## 8-byte Reload
	.loc	18 938 33 is_stmt 1     ## /Library/Developer/CommandLineTools/usr/bin/../include/c++/v1/vector:938:33
	movq	-16(%rbp), %rcx
	.loc	18 938 37 is_stmt 0     ## /Library/Developer/CommandLineTools/usr/bin/../include/c++/v1/vector:938:37
	addq	$8, %rcx
	.loc	18 938 5                ## /Library/Developer/CommandLineTools/usr/bin/../include/c++/v1/vector:938:5
	movq	%rax, %rdi
	movq	%rcx, %rsi
	callq	__ZNSt3__1L4swapIPiEENS_9enable_ifIXaasr21is_move_constructibleIT_EE5valuesr18is_move_assignableIS3_EE5valueEvE4typeERS3_S6_
	movq	-24(%rbp), %rax         ## 8-byte Reload
	.loc	18 939 23 is_stmt 1     ## /Library/Developer/CommandLineTools/usr/bin/../include/c++/v1/vector:939:23
	addq	$8, %rax
	.loc	18 939 31 is_stmt 0     ## /Library/Developer/CommandLineTools/usr/bin/../include/c++/v1/vector:939:31
	movq	-16(%rbp), %rcx
	.loc	18 939 35               ## /Library/Developer/CommandLineTools/usr/bin/../include/c++/v1/vector:939:35
	addq	$16, %rcx
	.loc	18 939 5                ## /Library/Developer/CommandLineTools/usr/bin/../include/c++/v1/vector:939:5
	movq	%rax, %rdi
	movq	%rcx, %rsi
	callq	__ZNSt3__1L4swapIPiEENS_9enable_ifIXaasr21is_move_constructibleIT_EE5valuesr18is_move_assignableIS3_EE5valueEvE4typeERS3_S6_
	movq	-24(%rbp), %rax         ## 8-byte Reload
	.loc	18 940 23 is_stmt 1     ## /Library/Developer/CommandLineTools/usr/bin/../include/c++/v1/vector:940:23
	movq	%rax, %rdi
	callq	__ZNSt3__113__vector_baseIiNS_9allocatorIiEEE9__end_capEv
	.loc	18 940 36 is_stmt 0     ## /Library/Developer/CommandLineTools/usr/bin/../include/c++/v1/vector:940:36
	movq	-16(%rbp), %rdi
	movq	%rax, -40(%rbp)         ## 8-byte Spill
	.loc	18 940 40               ## /Library/Developer/CommandLineTools/usr/bin/../include/c++/v1/vector:940:40
	callq	__ZNSt3__114__split_bufferIiRNS_9allocatorIiEEE9__end_capEv
	movq	-40(%rbp), %rdi         ## 8-byte Reload
	.loc	18 940 5                ## /Library/Developer/CommandLineTools/usr/bin/../include/c++/v1/vector:940:5
	movq	%rax, %rsi
	callq	__ZNSt3__1L4swapIPiEENS_9enable_ifIXaasr21is_move_constructibleIT_EE5valuesr18is_move_assignableIS3_EE5valueEvE4typeERS3_S6_
	.loc	18 941 20 is_stmt 1     ## /Library/Developer/CommandLineTools/usr/bin/../include/c++/v1/vector:941:20
	movq	-16(%rbp), %rax
	.loc	18 941 24 is_stmt 0     ## /Library/Developer/CommandLineTools/usr/bin/../include/c++/v1/vector:941:24
	movq	8(%rax), %rax
	.loc	18 941 5                ## /Library/Developer/CommandLineTools/usr/bin/../include/c++/v1/vector:941:5
	movq	-16(%rbp), %rcx
	.loc	18 941 18               ## /Library/Developer/CommandLineTools/usr/bin/../include/c++/v1/vector:941:18
	movq	%rax, (%rcx)
	movq	-24(%rbp), %rdi         ## 8-byte Reload
	.loc	18 942 20 is_stmt 1     ## /Library/Developer/CommandLineTools/usr/bin/../include/c++/v1/vector:942:20
	callq	__ZNKSt3__16vectorIiNS_9allocatorIiEEE4sizeEv
	movq	-24(%rbp), %rdi         ## 8-byte Reload
	.loc	18 942 5 is_stmt 0      ## /Library/Developer/CommandLineTools/usr/bin/../include/c++/v1/vector:942:5
	movq	%rax, %rsi
	callq	__ZNKSt3__16vectorIiNS_9allocatorIiEEE14__annotate_newEm
	movq	-24(%rbp), %rdi         ## 8-byte Reload
	.loc	18 943 5 is_stmt 1      ## /Library/Developer/CommandLineTools/usr/bin/../include/c++/v1/vector:943:5
	callq	__ZNSt3__16vectorIiNS_9allocatorIiEEE26__invalidate_all_iteratorsEv
	.loc	18 944 1                ## /Library/Developer/CommandLineTools/usr/bin/../include/c++/v1/vector:944:1
	addq	$48, %rsp
	popq	%rbp
	retq
Ltmp343:
Lfunc_end100:
	.cfi_endproc
                                        ## -- End function
	.globl	__ZNSt3__114__split_bufferIiRNS_9allocatorIiEEED1Ev ## -- Begin function _ZNSt3__114__split_bufferIiRNS_9allocatorIiEEED1Ev
	.weak_def_can_be_hidden	__ZNSt3__114__split_bufferIiRNS_9allocatorIiEEED1Ev
	.p2align	4, 0x90
__ZNSt3__114__split_bufferIiRNS_9allocatorIiEEED1Ev: ## @_ZNSt3__114__split_bufferIiRNS_9allocatorIiEEED1Ev
Lfunc_begin101:
	.loc	20 340 0                ## /Library/Developer/CommandLineTools/usr/bin/../include/c++/v1/__split_buffer:340:0
	.cfi_startproc
## %bb.0:
	pushq	%rbp
	.cfi_def_cfa_offset 16
	.cfi_offset %rbp, -16
	movq	%rsp, %rbp
	.cfi_def_cfa_register %rbp
	subq	$16, %rsp
	movq	%rdi, -8(%rbp)
	movq	-8(%rbp), %rdi
Ltmp344:
	.loc	20 340 1 prologue_end   ## /Library/Developer/CommandLineTools/usr/bin/../include/c++/v1/__split_buffer:340:1
	callq	__ZNSt3__114__split_bufferIiRNS_9allocatorIiEEED2Ev
	.loc	20 344 1                ## /Library/Developer/CommandLineTools/usr/bin/../include/c++/v1/__split_buffer:344:1
	addq	$16, %rsp
	popq	%rbp
	retq
Ltmp345:
Lfunc_end101:
	.cfi_endproc
                                        ## -- End function
	.p2align	4, 0x90         ## -- Begin function _ZNSt3__1L3maxImEERKT_S3_S3_
__ZNSt3__1L3maxImEERKT_S3_S3_:          ## @_ZNSt3__1L3maxImEERKT_S3_S3_
Lfunc_begin102:
	.loc	68 2606 0               ## /Library/Developer/CommandLineTools/usr/bin/../include/c++/v1/algorithm:2606:0
	.cfi_startproc
## %bb.0:
	pushq	%rbp
	.cfi_def_cfa_offset 16
	.cfi_offset %rbp, -16
	movq	%rsp, %rbp
	.cfi_def_cfa_register %rbp
	subq	$32, %rsp
	movq	%rdi, -8(%rbp)
	movq	%rsi, -16(%rbp)
Ltmp346:
	.loc	68 2607 23 prologue_end ## /Library/Developer/CommandLineTools/usr/bin/../include/c++/v1/algorithm:2607:23
	movq	-8(%rbp), %rdi
	.loc	68 2607 28 is_stmt 0    ## /Library/Developer/CommandLineTools/usr/bin/../include/c++/v1/algorithm:2607:28
	movq	-16(%rbp), %rsi
	.loc	68 2607 12              ## /Library/Developer/CommandLineTools/usr/bin/../include/c++/v1/algorithm:2607:12
	callq	__ZNSt3__1L3maxImNS_6__lessImmEEEERKT_S5_S5_T0_
	.loc	68 2607 5               ## /Library/Developer/CommandLineTools/usr/bin/../include/c++/v1/algorithm:2607:5
	addq	$32, %rsp
	popq	%rbp
	retq
Ltmp347:
Lfunc_end102:
	.cfi_endproc
                                        ## -- End function
	.p2align	4, 0x90         ## -- Begin function _ZNSt3__1L3maxImNS_6__lessImmEEEERKT_S5_S5_T0_
__ZNSt3__1L3maxImNS_6__lessImmEEEERKT_S5_S5_T0_: ## @_ZNSt3__1L3maxImNS_6__lessImmEEEERKT_S5_S5_T0_
Lfunc_begin103:
	.loc	68 2597 0 is_stmt 1     ## /Library/Developer/CommandLineTools/usr/bin/../include/c++/v1/algorithm:2597:0
	.cfi_startproc
## %bb.0:
	pushq	%rbp
	.cfi_def_cfa_offset 16
	.cfi_offset %rbp, -16
	movq	%rsp, %rbp
	.cfi_def_cfa_register %rbp
	subq	$32, %rsp
	movq	%rdi, -16(%rbp)
	movq	%rsi, -24(%rbp)
Ltmp348:
	.loc	68 2598 19 prologue_end ## /Library/Developer/CommandLineTools/usr/bin/../include/c++/v1/algorithm:2598:19
	movq	-16(%rbp), %rsi
	.loc	68 2598 24 is_stmt 0    ## /Library/Developer/CommandLineTools/usr/bin/../include/c++/v1/algorithm:2598:24
	movq	-24(%rbp), %rdx
	.loc	68 2598 12              ## /Library/Developer/CommandLineTools/usr/bin/../include/c++/v1/algorithm:2598:12
	leaq	-8(%rbp), %rdi
Ltmp349:
	##DEBUG_VALUE: max<unsigned long, std::__1::__less<unsigned long, unsigned long> >:__comp <- [$rdi+0]
	callq	__ZNKSt3__16__lessImmEclERKmS3_
Ltmp350:
	testb	$1, %al
	jne	LBB103_1
	jmp	LBB103_2
LBB103_1:
	.loc	68 2598 31              ## /Library/Developer/CommandLineTools/usr/bin/../include/c++/v1/algorithm:2598:31
	movq	-24(%rbp), %rax
	movq	%rax, -32(%rbp)         ## 8-byte Spill
	.loc	68 2598 12              ## /Library/Developer/CommandLineTools/usr/bin/../include/c++/v1/algorithm:2598:12
	jmp	LBB103_3
LBB103_2:
	.loc	68 2598 37              ## /Library/Developer/CommandLineTools/usr/bin/../include/c++/v1/algorithm:2598:37
	movq	-16(%rbp), %rax
	movq	%rax, -32(%rbp)         ## 8-byte Spill
LBB103_3:
	.loc	68 0 37                 ## /Library/Developer/CommandLineTools/usr/bin/../include/c++/v1/algorithm:0:37
	movq	-32(%rbp), %rax         ## 8-byte Reload
	.loc	68 2598 5               ## /Library/Developer/CommandLineTools/usr/bin/../include/c++/v1/algorithm:2598:5
	addq	$32, %rsp
	popq	%rbp
	retq
Ltmp351:
Lfunc_end103:
	.cfi_endproc
                                        ## -- End function
	.globl	__ZNSt3__114__split_bufferIiRNS_9allocatorIiEEEC2EmmS3_ ## -- Begin function _ZNSt3__114__split_bufferIiRNS_9allocatorIiEEEC2EmmS3_
	.weak_def_can_be_hidden	__ZNSt3__114__split_bufferIiRNS_9allocatorIiEEEC2EmmS3_
	.p2align	4, 0x90
__ZNSt3__114__split_bufferIiRNS_9allocatorIiEEEC2EmmS3_: ## @_ZNSt3__114__split_bufferIiRNS_9allocatorIiEEEC2EmmS3_
Lfunc_begin104:
	.loc	20 310 0 is_stmt 1      ## /Library/Developer/CommandLineTools/usr/bin/../include/c++/v1/__split_buffer:310:0
	.cfi_startproc
## %bb.0:
	pushq	%rbp
	.cfi_def_cfa_offset 16
	.cfi_offset %rbp, -16
	movq	%rsp, %rbp
	.cfi_def_cfa_register %rbp
	subq	$64, %rsp
	movq	%rdi, -8(%rbp)
	movq	%rsi, -16(%rbp)
	movq	%rdx, -24(%rbp)
	movq	%rcx, -32(%rbp)
	movq	-8(%rbp), %rax
Ltmp352:
	.loc	20 309 7 prologue_end   ## /Library/Developer/CommandLineTools/usr/bin/../include/c++/v1/__split_buffer:309:7
	movq	%rax, %rcx
	addq	$24, %rcx
	.loc	20 309 18 is_stmt 0     ## /Library/Developer/CommandLineTools/usr/bin/../include/c++/v1/__split_buffer:309:18
	movq	$0, -40(%rbp)
	.loc	20 309 27               ## /Library/Developer/CommandLineTools/usr/bin/../include/c++/v1/__split_buffer:309:27
	movq	-32(%rbp), %rdx
	.loc	20 309 7                ## /Library/Developer/CommandLineTools/usr/bin/../include/c++/v1/__split_buffer:309:7
	movq	%rcx, %rdi
	leaq	-40(%rbp), %rsi
	movq	%rax, -48(%rbp)         ## 8-byte Spill
	callq	__ZNSt3__117__compressed_pairIPiRNS_9allocatorIiEEEC1IDnS4_EEOT_OT0_
Ltmp353:
	.loc	20 311 22 is_stmt 1     ## /Library/Developer/CommandLineTools/usr/bin/../include/c++/v1/__split_buffer:311:22
	cmpq	$0, -16(%rbp)
	.loc	20 311 16 is_stmt 0     ## /Library/Developer/CommandLineTools/usr/bin/../include/c++/v1/__split_buffer:311:16
	je	LBB104_2
## %bb.1:
	.loc	20 0 16                 ## /Library/Developer/CommandLineTools/usr/bin/../include/c++/v1/__split_buffer:0:16
	movq	-48(%rbp), %rdi         ## 8-byte Reload
	.loc	20 311 54               ## /Library/Developer/CommandLineTools/usr/bin/../include/c++/v1/__split_buffer:311:54
	callq	__ZNSt3__114__split_bufferIiRNS_9allocatorIiEEE7__allocEv
	.loc	20 311 65               ## /Library/Developer/CommandLineTools/usr/bin/../include/c++/v1/__split_buffer:311:65
	movq	-16(%rbp), %rsi
	.loc	20 311 29               ## /Library/Developer/CommandLineTools/usr/bin/../include/c++/v1/__split_buffer:311:29
	movq	%rax, %rdi
	callq	__ZNSt3__116allocator_traitsINS_9allocatorIiEEE8allocateERS2_m
	movq	%rax, -56(%rbp)         ## 8-byte Spill
	.loc	20 311 16               ## /Library/Developer/CommandLineTools/usr/bin/../include/c++/v1/__split_buffer:311:16
	jmp	LBB104_3
LBB104_2:
	.loc	20 0 16                 ## /Library/Developer/CommandLineTools/usr/bin/../include/c++/v1/__split_buffer:0:16
	xorl	%eax, %eax
	movl	%eax, %ecx
	movq	%rcx, -56(%rbp)         ## 8-byte Spill
	.loc	20 311 16               ## /Library/Developer/CommandLineTools/usr/bin/../include/c++/v1/__split_buffer:311:16
	jmp	LBB104_3
LBB104_3:
	.loc	20 0 16                 ## /Library/Developer/CommandLineTools/usr/bin/../include/c++/v1/__split_buffer:0:16
	movq	-56(%rbp), %rax         ## 8-byte Reload
	movq	-48(%rbp), %rcx         ## 8-byte Reload
	.loc	20 311 14               ## /Library/Developer/CommandLineTools/usr/bin/../include/c++/v1/__split_buffer:311:14
	movq	%rax, (%rcx)
	.loc	20 312 25 is_stmt 1     ## /Library/Developer/CommandLineTools/usr/bin/../include/c++/v1/__split_buffer:312:25
	movq	(%rcx), %rax
	.loc	20 312 36 is_stmt 0     ## /Library/Developer/CommandLineTools/usr/bin/../include/c++/v1/__split_buffer:312:36
	movq	-24(%rbp), %rdx
	.loc	20 312 34               ## /Library/Developer/CommandLineTools/usr/bin/../include/c++/v1/__split_buffer:312:34
	shlq	$2, %rdx
	addq	%rdx, %rax
	.loc	20 312 23               ## /Library/Developer/CommandLineTools/usr/bin/../include/c++/v1/__split_buffer:312:23
	movq	%rax, 16(%rcx)
	.loc	20 312 14               ## /Library/Developer/CommandLineTools/usr/bin/../include/c++/v1/__split_buffer:312:14
	movq	%rax, 8(%rcx)
	.loc	20 313 19 is_stmt 1     ## /Library/Developer/CommandLineTools/usr/bin/../include/c++/v1/__split_buffer:313:19
	movq	(%rcx), %rax
	.loc	20 313 30 is_stmt 0     ## /Library/Developer/CommandLineTools/usr/bin/../include/c++/v1/__split_buffer:313:30
	movq	-16(%rbp), %rdx
	.loc	20 313 28               ## /Library/Developer/CommandLineTools/usr/bin/../include/c++/v1/__split_buffer:313:28
	shlq	$2, %rdx
	addq	%rdx, %rax
	.loc	20 313 5                ## /Library/Developer/CommandLineTools/usr/bin/../include/c++/v1/__split_buffer:313:5
	movq	%rcx, %rdi
	movq	%rax, -64(%rbp)         ## 8-byte Spill
	callq	__ZNSt3__114__split_bufferIiRNS_9allocatorIiEEE9__end_capEv
	movq	-64(%rbp), %rcx         ## 8-byte Reload
	.loc	20 313 17               ## /Library/Developer/CommandLineTools/usr/bin/../include/c++/v1/__split_buffer:313:17
	movq	%rcx, (%rax)
Ltmp354:
	.loc	20 314 1 is_stmt 1      ## /Library/Developer/CommandLineTools/usr/bin/../include/c++/v1/__split_buffer:314:1
	addq	$64, %rsp
	popq	%rbp
	retq
Ltmp355:
Lfunc_end104:
	.cfi_endproc
                                        ## -- End function
	.p2align	4, 0x90         ## -- Begin function _ZNSt3__117__compressed_pairIPiRNS_9allocatorIiEEEC1IDnS4_EEOT_OT0_
__ZNSt3__117__compressed_pairIPiRNS_9allocatorIiEEEC1IDnS4_EEOT_OT0_: ## @_ZNSt3__117__compressed_pairIPiRNS_9allocatorIiEEEC1IDnS4_EEOT_OT0_
Lfunc_begin105:
	.loc	8 2250 0                ## /Library/Developer/CommandLineTools/usr/bin/../include/c++/v1/memory:2250:0
	.cfi_startproc
## %bb.0:
	pushq	%rbp
	.cfi_def_cfa_offset 16
	.cfi_offset %rbp, -16
	movq	%rsp, %rbp
	.cfi_def_cfa_register %rbp
	subq	$32, %rsp
	movq	%rdi, -8(%rbp)
	movq	%rsi, -16(%rbp)
	movq	%rdx, -24(%rbp)
	movq	-8(%rbp), %rdi
Ltmp356:
	.loc	8 2250 74 prologue_end  ## /Library/Developer/CommandLineTools/usr/bin/../include/c++/v1/memory:2250:74
	movq	-16(%rbp), %rsi
	movq	-24(%rbp), %rdx
	callq	__ZNSt3__117__compressed_pairIPiRNS_9allocatorIiEEEC2IDnS4_EEOT_OT0_
	.loc	8 2250 75 is_stmt 0     ## /Library/Developer/CommandLineTools/usr/bin/../include/c++/v1/memory:2250:75
	addq	$32, %rsp
	popq	%rbp
	retq
Ltmp357:
Lfunc_end105:
	.cfi_endproc
                                        ## -- End function
	.p2align	4, 0x90         ## -- Begin function _ZNSt3__114__split_bufferIiRNS_9allocatorIiEEE7__allocEv
__ZNSt3__114__split_bufferIiRNS_9allocatorIiEEE7__allocEv: ## @_ZNSt3__114__split_bufferIiRNS_9allocatorIiEEE7__allocEv
Lfunc_begin106:
	.loc	20 56 0 is_stmt 1       ## /Library/Developer/CommandLineTools/usr/bin/../include/c++/v1/__split_buffer:56:0
	.cfi_startproc
## %bb.0:
	pushq	%rbp
	.cfi_def_cfa_offset 16
	.cfi_offset %rbp, -16
	movq	%rsp, %rbp
	.cfi_def_cfa_register %rbp
	subq	$16, %rsp
	movq	%rdi, -8(%rbp)
	movq	-8(%rbp), %rax
Ltmp358:
	.loc	20 56 89 prologue_end   ## /Library/Developer/CommandLineTools/usr/bin/../include/c++/v1/__split_buffer:56:89
	addq	$24, %rax
	.loc	20 56 100 is_stmt 0     ## /Library/Developer/CommandLineTools/usr/bin/../include/c++/v1/__split_buffer:56:100
	movq	%rax, %rdi
	callq	__ZNSt3__117__compressed_pairIPiRNS_9allocatorIiEEE6secondEv
	.loc	20 56 82                ## /Library/Developer/CommandLineTools/usr/bin/../include/c++/v1/__split_buffer:56:82
	addq	$16, %rsp
	popq	%rbp
	retq
Ltmp359:
Lfunc_end106:
	.cfi_endproc
                                        ## -- End function
	.p2align	4, 0x90         ## -- Begin function _ZNSt3__114__split_bufferIiRNS_9allocatorIiEEE9__end_capEv
__ZNSt3__114__split_bufferIiRNS_9allocatorIiEEE9__end_capEv: ## @_ZNSt3__114__split_bufferIiRNS_9allocatorIiEEE9__end_capEv
Lfunc_begin107:
	.loc	20 58 0 is_stmt 1       ## /Library/Developer/CommandLineTools/usr/bin/../include/c++/v1/__split_buffer:58:0
	.cfi_startproc
## %bb.0:
	pushq	%rbp
	.cfi_def_cfa_offset 16
	.cfi_offset %rbp, -16
	movq	%rsp, %rbp
	.cfi_def_cfa_register %rbp
	subq	$16, %rsp
	movq	%rdi, -8(%rbp)
	movq	-8(%rbp), %rax
Ltmp360:
	.loc	20 58 89 prologue_end   ## /Library/Developer/CommandLineTools/usr/bin/../include/c++/v1/__split_buffer:58:89
	addq	$24, %rax
	.loc	20 58 100 is_stmt 0     ## /Library/Developer/CommandLineTools/usr/bin/../include/c++/v1/__split_buffer:58:100
	movq	%rax, %rdi
	callq	__ZNSt3__117__compressed_pairIPiRNS_9allocatorIiEEE5firstEv
	.loc	20 58 82                ## /Library/Developer/CommandLineTools/usr/bin/../include/c++/v1/__split_buffer:58:82
	addq	$16, %rsp
	popq	%rbp
	retq
Ltmp361:
Lfunc_end107:
	.cfi_endproc
                                        ## -- End function
	.p2align	4, 0x90         ## -- Begin function _ZNSt3__117__compressed_pairIPiRNS_9allocatorIiEEEC2IDnS4_EEOT_OT0_
__ZNSt3__117__compressed_pairIPiRNS_9allocatorIiEEEC2IDnS4_EEOT_OT0_: ## @_ZNSt3__117__compressed_pairIPiRNS_9allocatorIiEEEC2IDnS4_EEOT_OT0_
Lfunc_begin108:
	.loc	8 2250 0 is_stmt 1      ## /Library/Developer/CommandLineTools/usr/bin/../include/c++/v1/memory:2250:0
	.cfi_startproc
## %bb.0:
	pushq	%rbp
	.cfi_def_cfa_offset 16
	.cfi_offset %rbp, -16
	movq	%rsp, %rbp
	.cfi_def_cfa_register %rbp
	subq	$48, %rsp
	movq	%rdi, -8(%rbp)
	movq	%rsi, -16(%rbp)
	movq	%rdx, -24(%rbp)
	movq	-8(%rbp), %rax
Ltmp362:
	.loc	8 2250 74 prologue_end  ## /Library/Developer/CommandLineTools/usr/bin/../include/c++/v1/memory:2250:74
	movq	%rax, %rcx
	.loc	8 2250 34 is_stmt 0     ## /Library/Developer/CommandLineTools/usr/bin/../include/c++/v1/memory:2250:34
	movq	-16(%rbp), %rdi
	movq	%rax, -32(%rbp)         ## 8-byte Spill
	movq	%rcx, -40(%rbp)         ## 8-byte Spill
	.loc	8 2250 16               ## /Library/Developer/CommandLineTools/usr/bin/../include/c++/v1/memory:2250:16
	callq	__ZNSt3__1L7forwardIDnEEOT_RNS_16remove_referenceIS1_E4typeE
	movq	-40(%rbp), %rdi         ## 8-byte Reload
	.loc	8 2250 9                ## /Library/Developer/CommandLineTools/usr/bin/../include/c++/v1/memory:2250:9
	movq	%rax, %rsi
	callq	__ZNSt3__122__compressed_pair_elemIPiLi0ELb0EEC2IDnvEEOT_
	movq	-32(%rbp), %rax         ## 8-byte Reload
	.loc	8 2250 74               ## /Library/Developer/CommandLineTools/usr/bin/../include/c++/v1/memory:2250:74
	addq	$8, %rax
	.loc	8 2250 67               ## /Library/Developer/CommandLineTools/usr/bin/../include/c++/v1/memory:2250:67
	movq	-24(%rbp), %rdi
	movq	%rax, -48(%rbp)         ## 8-byte Spill
	.loc	8 2250 49               ## /Library/Developer/CommandLineTools/usr/bin/../include/c++/v1/memory:2250:49
	callq	__ZNSt3__1L7forwardIRNS_9allocatorIiEEEEOT_RNS_16remove_referenceIS4_E4typeE
	movq	-48(%rbp), %rdi         ## 8-byte Reload
	.loc	8 2250 42               ## /Library/Developer/CommandLineTools/usr/bin/../include/c++/v1/memory:2250:42
	movq	%rax, %rsi
	callq	__ZNSt3__122__compressed_pair_elemIRNS_9allocatorIiEELi1ELb0EEC2IS3_vEEOT_
	.loc	8 2250 75               ## /Library/Developer/CommandLineTools/usr/bin/../include/c++/v1/memory:2250:75
	addq	$48, %rsp
	popq	%rbp
	retq
Ltmp363:
Lfunc_end108:
	.cfi_endproc
                                        ## -- End function
	.p2align	4, 0x90         ## -- Begin function _ZNSt3__1L7forwardIRNS_9allocatorIiEEEEOT_RNS_16remove_referenceIS4_E4typeE
__ZNSt3__1L7forwardIRNS_9allocatorIiEEEEOT_RNS_16remove_referenceIS4_E4typeE: ## @_ZNSt3__1L7forwardIRNS_9allocatorIiEEEEOT_RNS_16remove_referenceIS4_E4typeE
Lfunc_begin109:
	.loc	9 2360 0 is_stmt 1      ## /Library/Developer/CommandLineTools/usr/bin/../include/c++/v1/type_traits:2360:0
	.cfi_startproc
## %bb.0:
	pushq	%rbp
	.cfi_def_cfa_offset 16
	.cfi_offset %rbp, -16
	movq	%rsp, %rbp
	.cfi_def_cfa_register %rbp
	movq	%rdi, -8(%rbp)
Ltmp364:
	.loc	9 2361 31 prologue_end  ## /Library/Developer/CommandLineTools/usr/bin/../include/c++/v1/type_traits:2361:31
	movq	-8(%rbp), %rax
	.loc	9 2361 5 is_stmt 0      ## /Library/Developer/CommandLineTools/usr/bin/../include/c++/v1/type_traits:2361:5
	popq	%rbp
	retq
Ltmp365:
Lfunc_end109:
	.cfi_endproc
                                        ## -- End function
	.p2align	4, 0x90         ## -- Begin function _ZNSt3__122__compressed_pair_elemIRNS_9allocatorIiEELi1ELb0EEC2IS3_vEEOT_
__ZNSt3__122__compressed_pair_elemIRNS_9allocatorIiEELi1ELb0EEC2IS3_vEEOT_: ## @_ZNSt3__122__compressed_pair_elemIRNS_9allocatorIiEELi1ELb0EEC2IS3_vEEOT_
Lfunc_begin110:
	.loc	8 2148 0 is_stmt 1      ## /Library/Developer/CommandLineTools/usr/bin/../include/c++/v1/memory:2148:0
	.cfi_startproc
## %bb.0:
	pushq	%rbp
	.cfi_def_cfa_offset 16
	.cfi_offset %rbp, -16
	movq	%rsp, %rbp
	.cfi_def_cfa_register %rbp
	subq	$32, %rsp
	movq	%rdi, -8(%rbp)
	movq	%rsi, -16(%rbp)
	movq	-8(%rbp), %rax
Ltmp366:
	.loc	8 2147 38 prologue_end  ## /Library/Developer/CommandLineTools/usr/bin/../include/c++/v1/memory:2147:38
	movq	-16(%rbp), %rdi
	movq	%rax, -24(%rbp)         ## 8-byte Spill
	.loc	8 2147 18 is_stmt 0     ## /Library/Developer/CommandLineTools/usr/bin/../include/c++/v1/memory:2147:18
	callq	__ZNSt3__1L7forwardIRNS_9allocatorIiEEEEOT_RNS_16remove_referenceIS4_E4typeE
	movq	-24(%rbp), %rcx         ## 8-byte Reload
	.loc	8 2147 9                ## /Library/Developer/CommandLineTools/usr/bin/../include/c++/v1/memory:2147:9
	movq	%rax, (%rcx)
	.loc	8 2149 5 is_stmt 1      ## /Library/Developer/CommandLineTools/usr/bin/../include/c++/v1/memory:2149:5
	addq	$32, %rsp
	popq	%rbp
	retq
Ltmp367:
Lfunc_end110:
	.cfi_endproc
                                        ## -- End function
	.p2align	4, 0x90         ## -- Begin function _ZNSt3__117__compressed_pairIPiRNS_9allocatorIiEEE6secondEv
__ZNSt3__117__compressed_pairIPiRNS_9allocatorIiEEE6secondEv: ## @_ZNSt3__117__compressed_pairIPiRNS_9allocatorIiEEE6secondEv
Lfunc_begin111:
	.loc	8 2288 0                ## /Library/Developer/CommandLineTools/usr/bin/../include/c++/v1/memory:2288:0
	.cfi_startproc
## %bb.0:
	pushq	%rbp
	.cfi_def_cfa_offset 16
	.cfi_offset %rbp, -16
	movq	%rsp, %rbp
	.cfi_def_cfa_register %rbp
	subq	$16, %rsp
	movq	%rdi, -8(%rbp)
	movq	-8(%rbp), %rax
Ltmp368:
	.loc	8 2289 33 prologue_end  ## /Library/Developer/CommandLineTools/usr/bin/../include/c++/v1/memory:2289:33
	addq	$8, %rax
	.loc	8 2289 40 is_stmt 0     ## /Library/Developer/CommandLineTools/usr/bin/../include/c++/v1/memory:2289:40
	movq	%rax, %rdi
	callq	__ZNSt3__122__compressed_pair_elemIRNS_9allocatorIiEELi1ELb0EE5__getEv
	.loc	8 2289 5                ## /Library/Developer/CommandLineTools/usr/bin/../include/c++/v1/memory:2289:5
	addq	$16, %rsp
	popq	%rbp
	retq
Ltmp369:
Lfunc_end111:
	.cfi_endproc
                                        ## -- End function
	.p2align	4, 0x90         ## -- Begin function _ZNSt3__122__compressed_pair_elemIRNS_9allocatorIiEELi1ELb0EE5__getEv
__ZNSt3__122__compressed_pair_elemIRNS_9allocatorIiEELi1ELb0EE5__getEv: ## @_ZNSt3__122__compressed_pair_elemIRNS_9allocatorIiEELi1ELb0EE5__getEv
Lfunc_begin112:
	.loc	8 2162 0 is_stmt 1      ## /Library/Developer/CommandLineTools/usr/bin/../include/c++/v1/memory:2162:0
	.cfi_startproc
## %bb.0:
	pushq	%rbp
	.cfi_def_cfa_offset 16
	.cfi_offset %rbp, -16
	movq	%rsp, %rbp
	.cfi_def_cfa_register %rbp
	movq	%rdi, -8(%rbp)
	movq	-8(%rbp), %rax
Ltmp370:
	.loc	8 2162 66 prologue_end  ## /Library/Developer/CommandLineTools/usr/bin/../include/c++/v1/memory:2162:66
	movq	(%rax), %rax
	.loc	8 2162 59 is_stmt 0     ## /Library/Developer/CommandLineTools/usr/bin/../include/c++/v1/memory:2162:59
	popq	%rbp
	retq
Ltmp371:
Lfunc_end112:
	.cfi_endproc
                                        ## -- End function
	.p2align	4, 0x90         ## -- Begin function _ZNSt3__117__compressed_pairIPiRNS_9allocatorIiEEE5firstEv
__ZNSt3__117__compressed_pairIPiRNS_9allocatorIiEEE5firstEv: ## @_ZNSt3__117__compressed_pairIPiRNS_9allocatorIiEEE5firstEv
Lfunc_begin113:
	.loc	8 2278 0 is_stmt 1      ## /Library/Developer/CommandLineTools/usr/bin/../include/c++/v1/memory:2278:0
	.cfi_startproc
## %bb.0:
	pushq	%rbp
	.cfi_def_cfa_offset 16
	.cfi_offset %rbp, -16
	movq	%rsp, %rbp
	.cfi_def_cfa_register %rbp
	subq	$16, %rsp
	movq	%rdi, -8(%rbp)
	movq	-8(%rbp), %rax
Ltmp372:
	.loc	8 2279 40 prologue_end  ## /Library/Developer/CommandLineTools/usr/bin/../include/c++/v1/memory:2279:40
	movq	%rax, %rdi
	callq	__ZNSt3__122__compressed_pair_elemIPiLi0ELb0EE5__getEv
	.loc	8 2279 5 is_stmt 0      ## /Library/Developer/CommandLineTools/usr/bin/../include/c++/v1/memory:2279:5
	addq	$16, %rsp
	popq	%rbp
	retq
Ltmp373:
Lfunc_end113:
	.cfi_endproc
                                        ## -- End function
	.p2align	4, 0x90         ## -- Begin function _ZNSt3__116allocator_traitsINS_9allocatorIiEEE20__construct_backwardIiEENS_9enable_ifIXaaooL_ZNS_17integral_constantIbLb1EE5valueEEntsr15__has_constructIS2_PT_S8_EE5valuesr31is_trivially_move_constructibleIS8_EE5valueEvE4typeERS2_S9_S9_RS9_
__ZNSt3__116allocator_traitsINS_9allocatorIiEEE20__construct_backwardIiEENS_9enable_ifIXaaooL_ZNS_17integral_constantIbLb1EE5valueEEntsr15__has_constructIS2_PT_S8_EE5valuesr31is_trivially_move_constructibleIS8_EE5valueEvE4typeERS2_S9_S9_RS9_: ## @_ZNSt3__116allocator_traitsINS_9allocatorIiEEE20__construct_backwardIiEENS_9enable_ifIXaaooL_ZNS_17integral_constantIbLb1EE5valueEEntsr15__has_constructIS2_PT_S8_EE5valuesr31is_trivially_move_constructibleIS8_EE5valueEvE4typeERS2_S9_S9_RS9_
Lfunc_begin114:
	.loc	8 1695 0 is_stmt 1      ## /Library/Developer/CommandLineTools/usr/bin/../include/c++/v1/memory:1695:0
	.cfi_startproc
## %bb.0:
	pushq	%rbp
	.cfi_def_cfa_offset 16
	.cfi_offset %rbp, -16
	movq	%rsp, %rbp
	.cfi_def_cfa_register %rbp
	subq	$48, %rsp
	xorl	%eax, %eax
	movl	%eax, %r8d
	movq	%rdi, -8(%rbp)
	movq	%rsi, -16(%rbp)
	movq	%rdx, -24(%rbp)
	movq	%rcx, -32(%rbp)
Ltmp374:
	.loc	8 1696 29 prologue_end  ## /Library/Developer/CommandLineTools/usr/bin/../include/c++/v1/memory:1696:29
	movq	-24(%rbp), %rcx
	.loc	8 1696 38 is_stmt 0     ## /Library/Developer/CommandLineTools/usr/bin/../include/c++/v1/memory:1696:38
	movq	-16(%rbp), %rdx
	.loc	8 1696 36               ## /Library/Developer/CommandLineTools/usr/bin/../include/c++/v1/memory:1696:36
	subq	%rdx, %rcx
	sarq	$2, %rcx
	.loc	8 1696 23               ## /Library/Developer/CommandLineTools/usr/bin/../include/c++/v1/memory:1696:23
	movq	%rcx, -40(%rbp)
	.loc	8 1697 23 is_stmt 1     ## /Library/Developer/CommandLineTools/usr/bin/../include/c++/v1/memory:1697:23
	movq	-40(%rbp), %rcx
	.loc	8 1697 13 is_stmt 0     ## /Library/Developer/CommandLineTools/usr/bin/../include/c++/v1/memory:1697:13
	movq	-32(%rbp), %rdx
	.loc	8 1697 20               ## /Library/Developer/CommandLineTools/usr/bin/../include/c++/v1/memory:1697:20
	movq	(%rdx), %rsi
	subq	%rcx, %r8
	shlq	$2, %r8
	addq	%r8, %rsi
	movq	%rsi, (%rdx)
Ltmp375:
	.loc	8 1698 21 is_stmt 1     ## /Library/Developer/CommandLineTools/usr/bin/../include/c++/v1/memory:1698:21
	cmpq	$0, -40(%rbp)
Ltmp376:
	.loc	8 1698 17 is_stmt 0     ## /Library/Developer/CommandLineTools/usr/bin/../include/c++/v1/memory:1698:17
	jle	LBB114_2
## %bb.1:
Ltmp377:
	.loc	8 1699 31 is_stmt 1     ## /Library/Developer/CommandLineTools/usr/bin/../include/c++/v1/memory:1699:31
	movq	-32(%rbp), %rax
	movq	(%rax), %rax
	.loc	8 1699 39 is_stmt 0     ## /Library/Developer/CommandLineTools/usr/bin/../include/c++/v1/memory:1699:39
	movq	-16(%rbp), %rcx
	.loc	8 1699 49               ## /Library/Developer/CommandLineTools/usr/bin/../include/c++/v1/memory:1699:49
	movq	-40(%rbp), %rdx
	.loc	8 1699 53               ## /Library/Developer/CommandLineTools/usr/bin/../include/c++/v1/memory:1699:53
	shlq	$2, %rdx
	.loc	8 1699 17               ## /Library/Developer/CommandLineTools/usr/bin/../include/c++/v1/memory:1699:17
	movq	%rax, %rdi
	movq	%rcx, %rsi
	callq	_memcpy
Ltmp378:
LBB114_2:
	.loc	8 1700 9 is_stmt 1      ## /Library/Developer/CommandLineTools/usr/bin/../include/c++/v1/memory:1700:9
	addq	$48, %rsp
	popq	%rbp
	retq
Ltmp379:
Lfunc_end114:
	.cfi_endproc
                                        ## -- End function
	.p2align	4, 0x90         ## -- Begin function _ZNSt3__1L4swapIPiEENS_9enable_ifIXaasr21is_move_constructibleIT_EE5valuesr18is_move_assignableIS3_EE5valueEvE4typeERS3_S6_
__ZNSt3__1L4swapIPiEENS_9enable_ifIXaasr21is_move_constructibleIT_EE5valuesr18is_move_assignableIS3_EE5valueEvE4typeERS3_S6_: ## @_ZNSt3__1L4swapIPiEENS_9enable_ifIXaasr21is_move_constructibleIT_EE5valuesr18is_move_assignableIS3_EE5valueEvE4typeERS3_S6_
Lfunc_begin115:
	.loc	9 4592 0                ## /Library/Developer/CommandLineTools/usr/bin/../include/c++/v1/type_traits:4592:0
	.cfi_startproc
## %bb.0:
	pushq	%rbp
	.cfi_def_cfa_offset 16
	.cfi_offset %rbp, -16
	movq	%rsp, %rbp
	.cfi_def_cfa_register %rbp
	subq	$32, %rsp
	movq	%rdi, -8(%rbp)
	movq	%rsi, -16(%rbp)
Ltmp380:
	.loc	9 4593 25 prologue_end  ## /Library/Developer/CommandLineTools/usr/bin/../include/c++/v1/type_traits:4593:25
	movq	-8(%rbp), %rdi
	.loc	9 4593 13 is_stmt 0     ## /Library/Developer/CommandLineTools/usr/bin/../include/c++/v1/type_traits:4593:13
	callq	__ZNSt3__1L4moveIRPiEEONS_16remove_referenceIT_E4typeEOS4_
	movq	(%rax), %rax
	.loc	9 4593 9                ## /Library/Developer/CommandLineTools/usr/bin/../include/c++/v1/type_traits:4593:9
	movq	%rax, -24(%rbp)
	.loc	9 4594 23 is_stmt 1     ## /Library/Developer/CommandLineTools/usr/bin/../include/c++/v1/type_traits:4594:23
	movq	-16(%rbp), %rdi
	.loc	9 4594 11 is_stmt 0     ## /Library/Developer/CommandLineTools/usr/bin/../include/c++/v1/type_traits:4594:11
	callq	__ZNSt3__1L4moveIRPiEEONS_16remove_referenceIT_E4typeEOS4_
	movq	(%rax), %rax
	.loc	9 4594 5                ## /Library/Developer/CommandLineTools/usr/bin/../include/c++/v1/type_traits:4594:5
	movq	-8(%rbp), %rcx
	.loc	9 4594 9                ## /Library/Developer/CommandLineTools/usr/bin/../include/c++/v1/type_traits:4594:9
	movq	%rax, (%rcx)
	.loc	9 4595 11 is_stmt 1     ## /Library/Developer/CommandLineTools/usr/bin/../include/c++/v1/type_traits:4595:11
	leaq	-24(%rbp), %rdi
	callq	__ZNSt3__1L4moveIRPiEEONS_16remove_referenceIT_E4typeEOS4_
	movq	(%rax), %rax
	.loc	9 4595 5 is_stmt 0      ## /Library/Developer/CommandLineTools/usr/bin/../include/c++/v1/type_traits:4595:5
	movq	-16(%rbp), %rcx
	.loc	9 4595 9                ## /Library/Developer/CommandLineTools/usr/bin/../include/c++/v1/type_traits:4595:9
	movq	%rax, (%rcx)
	.loc	9 4596 1 is_stmt 1      ## /Library/Developer/CommandLineTools/usr/bin/../include/c++/v1/type_traits:4596:1
	addq	$32, %rsp
	popq	%rbp
	retq
Ltmp381:
Lfunc_end115:
	.cfi_endproc
                                        ## -- End function
	.p2align	4, 0x90         ## -- Begin function _ZNSt3__16vectorIiNS_9allocatorIiEEE26__invalidate_all_iteratorsEv
__ZNSt3__16vectorIiNS_9allocatorIiEEE26__invalidate_all_iteratorsEv: ## @_ZNSt3__16vectorIiNS_9allocatorIiEEE26__invalidate_all_iteratorsEv
Lfunc_begin116:
	.loc	18 2146 0               ## /Library/Developer/CommandLineTools/usr/bin/../include/c++/v1/vector:2146:0
	.cfi_startproc
## %bb.0:
	pushq	%rbp
	.cfi_def_cfa_offset 16
	.cfi_offset %rbp, -16
	movq	%rsp, %rbp
	.cfi_def_cfa_register %rbp
	movq	%rdi, -8(%rbp)
Ltmp382:
	.loc	18 2150 1 prologue_end  ## /Library/Developer/CommandLineTools/usr/bin/../include/c++/v1/vector:2150:1
	popq	%rbp
	retq
Ltmp383:
Lfunc_end116:
	.cfi_endproc
                                        ## -- End function
	.p2align	4, 0x90         ## -- Begin function _ZNSt3__1L4moveIRPiEEONS_16remove_referenceIT_E4typeEOS4_
__ZNSt3__1L4moveIRPiEEONS_16remove_referenceIT_E4typeEOS4_: ## @_ZNSt3__1L4moveIRPiEEONS_16remove_referenceIT_E4typeEOS4_
Lfunc_begin117:
	.loc	9 2351 0                ## /Library/Developer/CommandLineTools/usr/bin/../include/c++/v1/type_traits:2351:0
	.cfi_startproc
## %bb.0:
	pushq	%rbp
	.cfi_def_cfa_offset 16
	.cfi_offset %rbp, -16
	movq	%rsp, %rbp
	.cfi_def_cfa_register %rbp
	movq	%rdi, -8(%rbp)
Ltmp384:
	.loc	9 2353 31 prologue_end  ## /Library/Developer/CommandLineTools/usr/bin/../include/c++/v1/type_traits:2353:31
	movq	-8(%rbp), %rax
	.loc	9 2353 5 is_stmt 0      ## /Library/Developer/CommandLineTools/usr/bin/../include/c++/v1/type_traits:2353:5
	popq	%rbp
	retq
Ltmp385:
Lfunc_end117:
	.cfi_endproc
                                        ## -- End function
	.globl	__ZNSt3__114__split_bufferIiRNS_9allocatorIiEEED2Ev ## -- Begin function _ZNSt3__114__split_bufferIiRNS_9allocatorIiEEED2Ev
	.weak_def_can_be_hidden	__ZNSt3__114__split_bufferIiRNS_9allocatorIiEEED2Ev
	.p2align	4, 0x90
__ZNSt3__114__split_bufferIiRNS_9allocatorIiEEED2Ev: ## @_ZNSt3__114__split_bufferIiRNS_9allocatorIiEEED2Ev
Lfunc_begin118:
	.loc	20 340 0 is_stmt 1      ## /Library/Developer/CommandLineTools/usr/bin/../include/c++/v1/__split_buffer:340:0
	.cfi_startproc
	.cfi_personality 155, ___gxx_personality_v0
	.cfi_lsda 16, Lexception9
## %bb.0:
	pushq	%rbp
	.cfi_def_cfa_offset 16
	.cfi_offset %rbp, -16
	movq	%rsp, %rbp
	.cfi_def_cfa_register %rbp
	subq	$48, %rsp
	movq	%rdi, -8(%rbp)
	movq	-8(%rbp), %rax
Ltmp389:
	.loc	20 341 5 prologue_end   ## /Library/Developer/CommandLineTools/usr/bin/../include/c++/v1/__split_buffer:341:5
	movq	%rax, %rdi
	movq	%rax, -16(%rbp)         ## 8-byte Spill
	callq	__ZNSt3__114__split_bufferIiRNS_9allocatorIiEEE5clearEv
	movq	-16(%rbp), %rax         ## 8-byte Reload
Ltmp390:
	.loc	20 342 9                ## /Library/Developer/CommandLineTools/usr/bin/../include/c++/v1/__split_buffer:342:9
	cmpq	$0, (%rax)
Ltmp391:
	.loc	20 342 9 is_stmt 0      ## /Library/Developer/CommandLineTools/usr/bin/../include/c++/v1/__split_buffer:342:9
	je	LBB118_3
## %bb.1:
	.loc	20 0 9                  ## /Library/Developer/CommandLineTools/usr/bin/../include/c++/v1/__split_buffer:0:9
	movq	-16(%rbp), %rdi         ## 8-byte Reload
Ltmp392:
	.loc	20 343 36 is_stmt 1     ## /Library/Developer/CommandLineTools/usr/bin/../include/c++/v1/__split_buffer:343:36
	callq	__ZNSt3__114__split_bufferIiRNS_9allocatorIiEEE7__allocEv
	movq	-16(%rbp), %rcx         ## 8-byte Reload
	.loc	20 343 47 is_stmt 0     ## /Library/Developer/CommandLineTools/usr/bin/../include/c++/v1/__split_buffer:343:47
	movq	(%rcx), %rsi
Ltmp386:
	.loc	20 343 57               ## /Library/Developer/CommandLineTools/usr/bin/../include/c++/v1/__split_buffer:343:57
	movq	%rcx, %rdi
	movq	%rax, -24(%rbp)         ## 8-byte Spill
	movq	%rsi, -32(%rbp)         ## 8-byte Spill
	callq	__ZNKSt3__114__split_bufferIiRNS_9allocatorIiEEE8capacityEv
Ltmp387:
	movq	%rax, -40(%rbp)         ## 8-byte Spill
	jmp	LBB118_2
LBB118_2:
	.loc	20 0 57                 ## /Library/Developer/CommandLineTools/usr/bin/../include/c++/v1/__split_buffer:0:57
	movq	-24(%rbp), %rdi         ## 8-byte Reload
	movq	-32(%rbp), %rsi         ## 8-byte Reload
	movq	-40(%rbp), %rdx         ## 8-byte Reload
	.loc	20 343 9                ## /Library/Developer/CommandLineTools/usr/bin/../include/c++/v1/__split_buffer:343:9
	callq	__ZNSt3__116allocator_traitsINS_9allocatorIiEEE10deallocateERS2_Pim
Ltmp393:
LBB118_3:
	.loc	20 344 1 is_stmt 1      ## /Library/Developer/CommandLineTools/usr/bin/../include/c++/v1/__split_buffer:344:1
	addq	$48, %rsp
	popq	%rbp
	retq
LBB118_4:
Ltmp388:
Ltmp394:
	.loc	20 343 57               ## /Library/Developer/CommandLineTools/usr/bin/../include/c++/v1/__split_buffer:343:57
	movq	%rax, %rdi
	movq	%rdx, -48(%rbp)         ## 8-byte Spill
	callq	___clang_call_terminate
Ltmp395:
Lfunc_end118:
	.cfi_endproc
	.section	__TEXT,__gcc_except_tab
	.p2align	2
GCC_except_table118:
Lexception9:
	.byte	255                     ## @LPStart Encoding = omit
	.byte	155                     ## @TType Encoding = indirect pcrel sdata4
	.uleb128 Lttbase5-Lttbaseref5
Lttbaseref5:
	.byte	1                       ## Call site Encoding = uleb128
	.uleb128 Lcst_end9-Lcst_begin9
Lcst_begin9:
	.uleb128 Ltmp386-Lfunc_begin118 ## >> Call Site 1 <<
	.uleb128 Ltmp387-Ltmp386        ##   Call between Ltmp386 and Ltmp387
	.uleb128 Ltmp388-Lfunc_begin118 ##     jumps to Ltmp388
	.byte	1                       ##   On action: 1
Lcst_end9:
	.byte	1                       ## >> Action Record 1 <<
                                        ##   Catch TypeInfo 1
	.byte	0                       ##   No further actions
	.p2align	2
                                        ## >> Catch TypeInfos <<
	.long	0                       ## TypeInfo 1
Lttbase5:
	.p2align	2
                                        ## -- End function
	.section	__TEXT,__text,regular,pure_instructions
	.p2align	4, 0x90         ## -- Begin function _ZNSt3__114__split_bufferIiRNS_9allocatorIiEEE5clearEv
__ZNSt3__114__split_bufferIiRNS_9allocatorIiEEE5clearEv: ## @_ZNSt3__114__split_bufferIiRNS_9allocatorIiEEE5clearEv
Lfunc_begin119:
	.loc	20 88 0                 ## /Library/Developer/CommandLineTools/usr/bin/../include/c++/v1/__split_buffer:88:0
	.cfi_startproc
## %bb.0:
	pushq	%rbp
	.cfi_def_cfa_offset 16
	.cfi_offset %rbp, -16
	movq	%rsp, %rbp
	.cfi_def_cfa_register %rbp
	subq	$16, %rsp
	movq	%rdi, -8(%rbp)
	movq	-8(%rbp), %rax
Ltmp396:
	.loc	20 88 28 prologue_end   ## /Library/Developer/CommandLineTools/usr/bin/../include/c++/v1/__split_buffer:88:28
	movq	8(%rax), %rsi
	.loc	20 88 10 is_stmt 0      ## /Library/Developer/CommandLineTools/usr/bin/../include/c++/v1/__split_buffer:88:10
	movq	%rax, %rdi
	callq	__ZNSt3__114__split_bufferIiRNS_9allocatorIiEEE17__destruct_at_endEPi
	.loc	20 88 38                ## /Library/Developer/CommandLineTools/usr/bin/../include/c++/v1/__split_buffer:88:38
	addq	$16, %rsp
	popq	%rbp
	retq
Ltmp397:
Lfunc_end119:
	.cfi_endproc
                                        ## -- End function
	.p2align	4, 0x90         ## -- Begin function _ZNKSt3__114__split_bufferIiRNS_9allocatorIiEEE8capacityEv
__ZNKSt3__114__split_bufferIiRNS_9allocatorIiEEE8capacityEv: ## @_ZNKSt3__114__split_bufferIiRNS_9allocatorIiEEE8capacityEv
Lfunc_begin120:
	.loc	20 91 0 is_stmt 1       ## /Library/Developer/CommandLineTools/usr/bin/../include/c++/v1/__split_buffer:91:0
	.cfi_startproc
## %bb.0:
	pushq	%rbp
	.cfi_def_cfa_offset 16
	.cfi_offset %rbp, -16
	movq	%rsp, %rbp
	.cfi_def_cfa_register %rbp
	subq	$16, %rsp
	movq	%rdi, -8(%rbp)
	movq	-8(%rbp), %rax
Ltmp398:
	.loc	20 91 89 prologue_end   ## /Library/Developer/CommandLineTools/usr/bin/../include/c++/v1/__split_buffer:91:89
	movq	%rax, %rdi
	movq	%rax, -16(%rbp)         ## 8-byte Spill
	callq	__ZNKSt3__114__split_bufferIiRNS_9allocatorIiEEE9__end_capEv
	movq	(%rax), %rax
	movq	-16(%rbp), %rcx         ## 8-byte Reload
	.loc	20 91 103 is_stmt 0     ## /Library/Developer/CommandLineTools/usr/bin/../include/c++/v1/__split_buffer:91:103
	movq	(%rcx), %rdx
	.loc	20 91 101               ## /Library/Developer/CommandLineTools/usr/bin/../include/c++/v1/__split_buffer:91:101
	subq	%rdx, %rax
	sarq	$2, %rax
	.loc	20 91 59                ## /Library/Developer/CommandLineTools/usr/bin/../include/c++/v1/__split_buffer:91:59
	addq	$16, %rsp
	popq	%rbp
	retq
Ltmp399:
Lfunc_end120:
	.cfi_endproc
                                        ## -- End function
	.p2align	4, 0x90         ## -- Begin function _ZNSt3__114__split_bufferIiRNS_9allocatorIiEEE17__destruct_at_endEPi
__ZNSt3__114__split_bufferIiRNS_9allocatorIiEEE17__destruct_at_endEPi: ## @_ZNSt3__114__split_bufferIiRNS_9allocatorIiEEE17__destruct_at_endEPi
Lfunc_begin121:
	.loc	20 141 0 is_stmt 1      ## /Library/Developer/CommandLineTools/usr/bin/../include/c++/v1/__split_buffer:141:0
	.cfi_startproc
## %bb.0:
	pushq	%rbp
	.cfi_def_cfa_offset 16
	.cfi_offset %rbp, -16
	movq	%rsp, %rbp
	.cfi_def_cfa_register %rbp
	subq	$32, %rsp
	movq	%rdi, -8(%rbp)
	movq	%rsi, -16(%rbp)
	movq	-8(%rbp), %rdi
Ltmp400:
	.loc	20 141 28 prologue_end  ## /Library/Developer/CommandLineTools/usr/bin/../include/c++/v1/__split_buffer:141:28
	movq	-16(%rbp), %rsi
	.loc	20 141 10 is_stmt 0     ## /Library/Developer/CommandLineTools/usr/bin/../include/c++/v1/__split_buffer:141:10
	callq	__ZNSt3__114__split_bufferIiRNS_9allocatorIiEEE17__destruct_at_endEPiNS_17integral_constantIbLb0EEE
	.loc	20 141 54               ## /Library/Developer/CommandLineTools/usr/bin/../include/c++/v1/__split_buffer:141:54
	addq	$32, %rsp
	popq	%rbp
	retq
Ltmp401:
Lfunc_end121:
	.cfi_endproc
                                        ## -- End function
	.p2align	4, 0x90         ## -- Begin function _ZNSt3__114__split_bufferIiRNS_9allocatorIiEEE17__destruct_at_endEPiNS_17integral_constantIbLb0EEE
__ZNSt3__114__split_bufferIiRNS_9allocatorIiEEE17__destruct_at_endEPiNS_17integral_constantIbLb0EEE: ## @_ZNSt3__114__split_bufferIiRNS_9allocatorIiEEE17__destruct_at_endEPiNS_17integral_constantIbLb0EEE
Lfunc_begin122:
	.loc	20 294 0 is_stmt 1      ## /Library/Developer/CommandLineTools/usr/bin/../include/c++/v1/__split_buffer:294:0
	.cfi_startproc
	.cfi_personality 155, ___gxx_personality_v0
	.cfi_lsda 16, Lexception10
## %bb.0:
	pushq	%rbp
	.cfi_def_cfa_offset 16
	.cfi_offset %rbp, -16
	movq	%rsp, %rbp
	.cfi_def_cfa_register %rbp
	subq	$48, %rsp
	movq	%rdi, -16(%rbp)
	movq	%rsi, -24(%rbp)
	movq	-16(%rbp), %rax
	movq	%rax, -32(%rbp)         ## 8-byte Spill
LBB122_1:                               ## =>This Inner Loop Header: Depth=1
Ltmp405:
	.loc	20 295 12 prologue_end  ## /Library/Developer/CommandLineTools/usr/bin/../include/c++/v1/__split_buffer:295:12
	movq	-24(%rbp), %rax
	movq	-32(%rbp), %rcx         ## 8-byte Reload
	.loc	20 295 23 is_stmt 0     ## /Library/Developer/CommandLineTools/usr/bin/../include/c++/v1/__split_buffer:295:23
	cmpq	16(%rcx), %rax
	.loc	20 295 5                ## /Library/Developer/CommandLineTools/usr/bin/../include/c++/v1/__split_buffer:295:5
	je	LBB122_4
## %bb.2:                               ##   in Loop: Header=BB122_1 Depth=1
	.loc	20 0 5                  ## /Library/Developer/CommandLineTools/usr/bin/../include/c++/v1/__split_buffer:0:5
	movq	-32(%rbp), %rdi         ## 8-byte Reload
	.loc	20 296 33 is_stmt 1     ## /Library/Developer/CommandLineTools/usr/bin/../include/c++/v1/__split_buffer:296:33
	callq	__ZNSt3__114__split_bufferIiRNS_9allocatorIiEEE7__allocEv
	movq	-32(%rbp), %rcx         ## 8-byte Reload
	.loc	20 296 61 is_stmt 0     ## /Library/Developer/CommandLineTools/usr/bin/../include/c++/v1/__split_buffer:296:61
	movq	16(%rcx), %rdx
	addq	$-4, %rdx
	movq	%rdx, 16(%rcx)
	.loc	20 296 44               ## /Library/Developer/CommandLineTools/usr/bin/../include/c++/v1/__split_buffer:296:44
	movq	%rdx, %rdi
	movq	%rax, -40(%rbp)         ## 8-byte Spill
	callq	__ZNSt3__1L16__to_raw_pointerIiEEPT_S2_
Ltmp402:
	movq	-40(%rbp), %rdi         ## 8-byte Reload
	.loc	20 296 9                ## /Library/Developer/CommandLineTools/usr/bin/../include/c++/v1/__split_buffer:296:9
	movq	%rax, %rsi
	callq	__ZNSt3__116allocator_traitsINS_9allocatorIiEEE7destroyIiEEvRS2_PT_
Ltmp403:
	jmp	LBB122_3
LBB122_3:                               ##   in Loop: Header=BB122_1 Depth=1
	.loc	20 295 5 is_stmt 1      ## /Library/Developer/CommandLineTools/usr/bin/../include/c++/v1/__split_buffer:295:5
	jmp	LBB122_1
LBB122_4:
	.loc	20 297 1                ## /Library/Developer/CommandLineTools/usr/bin/../include/c++/v1/__split_buffer:297:1
	addq	$48, %rsp
	popq	%rbp
	retq
LBB122_5:
Ltmp404:
	.loc	20 296 9                ## /Library/Developer/CommandLineTools/usr/bin/../include/c++/v1/__split_buffer:296:9
	movq	%rax, %rdi
	movq	%rdx, -48(%rbp)         ## 8-byte Spill
	callq	___clang_call_terminate
Ltmp406:
Lfunc_end122:
	.cfi_endproc
	.section	__TEXT,__gcc_except_tab
	.p2align	2
GCC_except_table122:
Lexception10:
	.byte	255                     ## @LPStart Encoding = omit
	.byte	155                     ## @TType Encoding = indirect pcrel sdata4
	.uleb128 Lttbase6-Lttbaseref6
Lttbaseref6:
	.byte	1                       ## Call site Encoding = uleb128
	.uleb128 Lcst_end10-Lcst_begin10
Lcst_begin10:
	.uleb128 Ltmp402-Lfunc_begin122 ## >> Call Site 1 <<
	.uleb128 Ltmp403-Ltmp402        ##   Call between Ltmp402 and Ltmp403
	.uleb128 Ltmp404-Lfunc_begin122 ##     jumps to Ltmp404
	.byte	1                       ##   On action: 1
Lcst_end10:
	.byte	1                       ## >> Action Record 1 <<
                                        ##   Catch TypeInfo 1
	.byte	0                       ##   No further actions
	.p2align	2
                                        ## >> Catch TypeInfos <<
	.long	0                       ## TypeInfo 1
Lttbase6:
	.p2align	2
                                        ## -- End function
	.section	__TEXT,__text,regular,pure_instructions
	.p2align	4, 0x90         ## -- Begin function _ZNKSt3__114__split_bufferIiRNS_9allocatorIiEEE9__end_capEv
__ZNKSt3__114__split_bufferIiRNS_9allocatorIiEEE9__end_capEv: ## @_ZNKSt3__114__split_bufferIiRNS_9allocatorIiEEE9__end_capEv
Lfunc_begin123:
	.loc	20 59 0                 ## /Library/Developer/CommandLineTools/usr/bin/../include/c++/v1/__split_buffer:59:0
	.cfi_startproc
## %bb.0:
	pushq	%rbp
	.cfi_def_cfa_offset 16
	.cfi_offset %rbp, -16
	movq	%rsp, %rbp
	.cfi_def_cfa_register %rbp
	subq	$16, %rsp
	movq	%rdi, -8(%rbp)
	movq	-8(%rbp), %rax
Ltmp407:
	.loc	20 59 89 prologue_end   ## /Library/Developer/CommandLineTools/usr/bin/../include/c++/v1/__split_buffer:59:89
	addq	$24, %rax
	.loc	20 59 100 is_stmt 0     ## /Library/Developer/CommandLineTools/usr/bin/../include/c++/v1/__split_buffer:59:100
	movq	%rax, %rdi
	callq	__ZNKSt3__117__compressed_pairIPiRNS_9allocatorIiEEE5firstEv
	.loc	20 59 82                ## /Library/Developer/CommandLineTools/usr/bin/../include/c++/v1/__split_buffer:59:82
	addq	$16, %rsp
	popq	%rbp
	retq
Ltmp408:
Lfunc_end123:
	.cfi_endproc
                                        ## -- End function
	.p2align	4, 0x90         ## -- Begin function _ZNKSt3__117__compressed_pairIPiRNS_9allocatorIiEEE5firstEv
__ZNKSt3__117__compressed_pairIPiRNS_9allocatorIiEEE5firstEv: ## @_ZNKSt3__117__compressed_pairIPiRNS_9allocatorIiEEE5firstEv
Lfunc_begin124:
	.loc	8 2283 0 is_stmt 1      ## /Library/Developer/CommandLineTools/usr/bin/../include/c++/v1/memory:2283:0
	.cfi_startproc
## %bb.0:
	pushq	%rbp
	.cfi_def_cfa_offset 16
	.cfi_offset %rbp, -16
	movq	%rsp, %rbp
	.cfi_def_cfa_register %rbp
	subq	$16, %rsp
	movq	%rdi, -8(%rbp)
	movq	-8(%rbp), %rax
Ltmp409:
	.loc	8 2284 46 prologue_end  ## /Library/Developer/CommandLineTools/usr/bin/../include/c++/v1/memory:2284:46
	movq	%rax, %rdi
	callq	__ZNKSt3__122__compressed_pair_elemIPiLi0ELb0EE5__getEv
	.loc	8 2284 5 is_stmt 0      ## /Library/Developer/CommandLineTools/usr/bin/../include/c++/v1/memory:2284:5
	addq	$16, %rsp
	popq	%rbp
	retq
Ltmp410:
Lfunc_end124:
	.cfi_endproc
                                        ## -- End function
	.p2align	4, 0x90         ## -- Begin function _ZNSt3__16vectorIiNS_9allocatorIiEEE11__make_iterEPi
__ZNSt3__16vectorIiNS_9allocatorIiEEE11__make_iterEPi: ## @_ZNSt3__16vectorIiNS_9allocatorIiEEE11__make_iterEPi
Lfunc_begin125:
	.loc	18 1485 0 is_stmt 1     ## /Library/Developer/CommandLineTools/usr/bin/../include/c++/v1/vector:1485:0
	.cfi_startproc
## %bb.0:
	pushq	%rbp
	.cfi_def_cfa_offset 16
	.cfi_offset %rbp, -16
	movq	%rsp, %rbp
	.cfi_def_cfa_register %rbp
	subq	$32, %rsp
	movq	%rdi, -16(%rbp)
	movq	%rsi, -24(%rbp)
Ltmp411:
	.loc	18 1489 21 prologue_end ## /Library/Developer/CommandLineTools/usr/bin/../include/c++/v1/vector:1489:21
	movq	-24(%rbp), %rsi
	.loc	18 1489 12 is_stmt 0    ## /Library/Developer/CommandLineTools/usr/bin/../include/c++/v1/vector:1489:12
	leaq	-8(%rbp), %rdi
	callq	__ZNSt3__111__wrap_iterIPiEC1ES1_
	.loc	18 1489 5               ## /Library/Developer/CommandLineTools/usr/bin/../include/c++/v1/vector:1489:5
	movq	-8(%rbp), %rax
	addq	$32, %rsp
	popq	%rbp
	retq
Ltmp412:
Lfunc_end125:
	.cfi_endproc
                                        ## -- End function
	.p2align	4, 0x90         ## -- Begin function _ZNSt3__111__wrap_iterIPiEC1ES1_
__ZNSt3__111__wrap_iterIPiEC1ES1_:      ## @_ZNSt3__111__wrap_iterIPiEC1ES1_
Lfunc_begin126:
	.loc	19 1446 0 is_stmt 1     ## /Library/Developer/CommandLineTools/usr/bin/../include/c++/v1/iterator:1446:0
	.cfi_startproc
## %bb.0:
	pushq	%rbp
	.cfi_def_cfa_offset 16
	.cfi_offset %rbp, -16
	movq	%rsp, %rbp
	.cfi_def_cfa_register %rbp
	subq	$16, %rsp
	movq	%rdi, -8(%rbp)
	movq	%rsi, -16(%rbp)
	movq	-8(%rbp), %rdi
Ltmp413:
	.loc	19 1446 112 prologue_end ## /Library/Developer/CommandLineTools/usr/bin/../include/c++/v1/iterator:1446:112
	movq	-16(%rbp), %rsi
	callq	__ZNSt3__111__wrap_iterIPiEC2ES1_
	.loc	19 1446 113 is_stmt 0   ## /Library/Developer/CommandLineTools/usr/bin/../include/c++/v1/iterator:1446:113
	addq	$16, %rsp
	popq	%rbp
	retq
Ltmp414:
Lfunc_end126:
	.cfi_endproc
                                        ## -- End function
	.p2align	4, 0x90         ## -- Begin function _ZNSt3__111__wrap_iterIPiEC2ES1_
__ZNSt3__111__wrap_iterIPiEC2ES1_:      ## @_ZNSt3__111__wrap_iterIPiEC2ES1_
Lfunc_begin127:
	.loc	19 1446 0 is_stmt 1     ## /Library/Developer/CommandLineTools/usr/bin/../include/c++/v1/iterator:1446:0
	.cfi_startproc
## %bb.0:
	pushq	%rbp
	.cfi_def_cfa_offset 16
	.cfi_offset %rbp, -16
	movq	%rsp, %rbp
	.cfi_def_cfa_register %rbp
	movq	%rdi, -8(%rbp)
	movq	%rsi, -16(%rbp)
	movq	-8(%rbp), %rax
Ltmp415:
	.loc	19 1446 107 prologue_end ## /Library/Developer/CommandLineTools/usr/bin/../include/c++/v1/iterator:1446:107
	movq	-16(%rbp), %rcx
	.loc	19 1446 103 is_stmt 0   ## /Library/Developer/CommandLineTools/usr/bin/../include/c++/v1/iterator:1446:103
	movq	%rcx, (%rax)
	.loc	19 1446 113             ## /Library/Developer/CommandLineTools/usr/bin/../include/c++/v1/iterator:1446:113
	popq	%rbp
	retq
Ltmp416:
Lfunc_end127:
	.cfi_endproc
                                        ## -- End function
	.p2align	4, 0x90         ## -- Begin function _ZNSt3__1eqIPiS1_EEbRKNS_11__wrap_iterIT_EERKNS2_IT0_EE
__ZNSt3__1eqIPiS1_EEbRKNS_11__wrap_iterIT_EERKNS2_IT0_EE: ## @_ZNSt3__1eqIPiS1_EEbRKNS_11__wrap_iterIT_EERKNS2_IT0_EE
Lfunc_begin128:
	.loc	19 1532 0 is_stmt 1     ## /Library/Developer/CommandLineTools/usr/bin/../include/c++/v1/iterator:1532:0
	.cfi_startproc
## %bb.0:
	pushq	%rbp
	.cfi_def_cfa_offset 16
	.cfi_offset %rbp, -16
	movq	%rsp, %rbp
	.cfi_def_cfa_register %rbp
	subq	$32, %rsp
	movq	%rdi, -8(%rbp)
	movq	%rsi, -16(%rbp)
Ltmp417:
	.loc	19 1533 12 prologue_end ## /Library/Developer/CommandLineTools/usr/bin/../include/c++/v1/iterator:1533:12
	movq	-8(%rbp), %rdi
	.loc	19 1533 16 is_stmt 0    ## /Library/Developer/CommandLineTools/usr/bin/../include/c++/v1/iterator:1533:16
	callq	__ZNKSt3__111__wrap_iterIPiE4baseEv
	.loc	19 1533 26              ## /Library/Developer/CommandLineTools/usr/bin/../include/c++/v1/iterator:1533:26
	movq	-16(%rbp), %rdi
	movq	%rax, -24(%rbp)         ## 8-byte Spill
	.loc	19 1533 30              ## /Library/Developer/CommandLineTools/usr/bin/../include/c++/v1/iterator:1533:30
	callq	__ZNKSt3__111__wrap_iterIPiE4baseEv
	movq	-24(%rbp), %rcx         ## 8-byte Reload
	.loc	19 1533 23              ## /Library/Developer/CommandLineTools/usr/bin/../include/c++/v1/iterator:1533:23
	cmpq	%rax, %rcx
	sete	%dl
	.loc	19 1533 5               ## /Library/Developer/CommandLineTools/usr/bin/../include/c++/v1/iterator:1533:5
	andb	$1, %dl
	movzbl	%dl, %eax
	addq	$32, %rsp
	popq	%rbp
	retq
Ltmp418:
Lfunc_end128:
	.cfi_endproc
                                        ## -- End function
	.p2align	4, 0x90         ## -- Begin function _ZNKSt3__111__wrap_iterIPiE4baseEv
__ZNKSt3__111__wrap_iterIPiE4baseEv:    ## @_ZNKSt3__111__wrap_iterIPiE4baseEv
Lfunc_begin129:
	.loc	19 1437 0 is_stmt 1     ## /Library/Developer/CommandLineTools/usr/bin/../include/c++/v1/iterator:1437:0
	.cfi_startproc
## %bb.0:
	pushq	%rbp
	.cfi_def_cfa_offset 16
	.cfi_offset %rbp, -16
	movq	%rsp, %rbp
	.cfi_def_cfa_register %rbp
	movq	%rdi, -8(%rbp)
	movq	-8(%rbp), %rax
Ltmp419:
	.loc	19 1437 105 prologue_end ## /Library/Developer/CommandLineTools/usr/bin/../include/c++/v1/iterator:1437:105
	movq	(%rax), %rax
	.loc	19 1437 98 is_stmt 0    ## /Library/Developer/CommandLineTools/usr/bin/../include/c++/v1/iterator:1437:98
	popq	%rbp
	retq
Ltmp420:
Lfunc_end129:
	.cfi_endproc
                                        ## -- End function
	.globl	__ZNSt3__124__put_character_sequenceIcNS_11char_traitsIcEEEERNS_13basic_ostreamIT_T0_EES7_PKS4_m ## -- Begin function _ZNSt3__124__put_character_sequenceIcNS_11char_traitsIcEEEERNS_13basic_ostreamIT_T0_EES7_PKS4_m
	.weak_definition	__ZNSt3__124__put_character_sequenceIcNS_11char_traitsIcEEEERNS_13basic_ostreamIT_T0_EES7_PKS4_m
	.p2align	4, 0x90
__ZNSt3__124__put_character_sequenceIcNS_11char_traitsIcEEEERNS_13basic_ostreamIT_T0_EES7_PKS4_m: ## @_ZNSt3__124__put_character_sequenceIcNS_11char_traitsIcEEEERNS_13basic_ostreamIT_T0_EES7_PKS4_m
Lfunc_begin130:
	.loc	22 716 0 is_stmt 1      ## /Library/Developer/CommandLineTools/usr/bin/../include/c++/v1/ostream:716:0
	.cfi_startproc
	.cfi_personality 155, ___gxx_personality_v0
	.cfi_lsda 16, Lexception11
## %bb.0:
	pushq	%rbp
	.cfi_def_cfa_offset 16
	.cfi_offset %rbp, -16
	movq	%rsp, %rbp
	.cfi_def_cfa_register %rbp
	subq	$160, %rsp
	movq	%rdi, -8(%rbp)
	movq	%rsi, -16(%rbp)
	movq	%rdx, -24(%rbp)
Ltmp441:
	.loc	22 721 61 prologue_end  ## /Library/Developer/CommandLineTools/usr/bin/../include/c++/v1/ostream:721:61
	movq	-8(%rbp), %rsi
Ltmp421:
	leaq	-40(%rbp), %rdi
	.loc	22 721 57 is_stmt 0     ## /Library/Developer/CommandLineTools/usr/bin/../include/c++/v1/ostream:721:57
	callq	__ZNSt3__113basic_ostreamIcNS_11char_traitsIcEEE6sentryC1ERS3_
Ltmp422:
	jmp	LBB130_1
LBB130_1:
Ltmp424:
	.loc	22 0 57                 ## /Library/Developer/CommandLineTools/usr/bin/../include/c++/v1/ostream:0:57
	leaq	-40(%rbp), %rdi
Ltmp442:
	.loc	22 722 13 is_stmt 1     ## /Library/Developer/CommandLineTools/usr/bin/../include/c++/v1/ostream:722:13
	callq	__ZNKSt3__113basic_ostreamIcNS_11char_traitsIcEEE6sentrycvbEv
Ltmp425:
	movb	%al, -73(%rbp)          ## 1-byte Spill
	jmp	LBB130_2
Ltmp443:
LBB130_2:
	.loc	22 0 13 is_stmt 0       ## /Library/Developer/CommandLineTools/usr/bin/../include/c++/v1/ostream:0:13
	movb	-73(%rbp), %al          ## 1-byte Reload
	.loc	22 722 13               ## /Library/Developer/CommandLineTools/usr/bin/../include/c++/v1/ostream:722:13
	testb	$1, %al
	jne	LBB130_3
	jmp	LBB130_18
LBB130_3:
Ltmp444:
	.loc	22 725 38 is_stmt 1     ## /Library/Developer/CommandLineTools/usr/bin/../include/c++/v1/ostream:725:38
	movq	-8(%rbp), %rsi
	leaq	-72(%rbp), %rdi
	.loc	22 725 34 is_stmt 0     ## /Library/Developer/CommandLineTools/usr/bin/../include/c++/v1/ostream:725:34
	callq	__ZNSt3__119ostreambuf_iteratorIcNS_11char_traitsIcEEEC1ERNS_13basic_ostreamIcS2_EE
	.loc	22 726 34 is_stmt 1     ## /Library/Developer/CommandLineTools/usr/bin/../include/c++/v1/ostream:726:34
	movq	-16(%rbp), %rsi
	.loc	22 727 35               ## /Library/Developer/CommandLineTools/usr/bin/../include/c++/v1/ostream:727:35
	movq	-8(%rbp), %rax
	movq	(%rax), %rcx
	movq	-24(%rcx), %rcx
	addq	%rcx, %rax
Ltmp426:
	.loc	22 727 40 is_stmt 0     ## /Library/Developer/CommandLineTools/usr/bin/../include/c++/v1/ostream:727:40
	movq	%rax, %rdi
	movq	%rsi, -88(%rbp)         ## 8-byte Spill
	callq	__ZNKSt3__18ios_base5flagsEv
Ltmp427:
	movl	%eax, -92(%rbp)         ## 4-byte Spill
	jmp	LBB130_4
LBB130_4:
	.loc	22 0 40                 ## /Library/Developer/CommandLineTools/usr/bin/../include/c++/v1/ostream:0:40
	movl	-92(%rbp), %eax         ## 4-byte Reload
	.loc	22 727 48               ## /Library/Developer/CommandLineTools/usr/bin/../include/c++/v1/ostream:727:48
	andl	$176, %eax
	.loc	22 727 73               ## /Library/Developer/CommandLineTools/usr/bin/../include/c++/v1/ostream:727:73
	cmpl	$32, %eax
	.loc	22 727 34               ## /Library/Developer/CommandLineTools/usr/bin/../include/c++/v1/ostream:727:34
	jne	LBB130_6
## %bb.5:
	.loc	22 728 38 is_stmt 1     ## /Library/Developer/CommandLineTools/usr/bin/../include/c++/v1/ostream:728:38
	movq	-16(%rbp), %rax
	.loc	22 728 44 is_stmt 0     ## /Library/Developer/CommandLineTools/usr/bin/../include/c++/v1/ostream:728:44
	addq	-24(%rbp), %rax
	movq	%rax, -104(%rbp)        ## 8-byte Spill
	.loc	22 727 34 is_stmt 1     ## /Library/Developer/CommandLineTools/usr/bin/../include/c++/v1/ostream:727:34
	jmp	LBB130_7
LBB130_6:
	.loc	22 729 38               ## /Library/Developer/CommandLineTools/usr/bin/../include/c++/v1/ostream:729:38
	movq	-16(%rbp), %rax
	movq	%rax, -104(%rbp)        ## 8-byte Spill
LBB130_7:
	.loc	22 0 38 is_stmt 0       ## /Library/Developer/CommandLineTools/usr/bin/../include/c++/v1/ostream:0:38
	movq	-104(%rbp), %rax        ## 8-byte Reload
	.loc	22 730 34 is_stmt 1     ## /Library/Developer/CommandLineTools/usr/bin/../include/c++/v1/ostream:730:34
	movq	-16(%rbp), %rcx
	.loc	22 730 42 is_stmt 0     ## /Library/Developer/CommandLineTools/usr/bin/../include/c++/v1/ostream:730:42
	movq	-24(%rbp), %rdx
	.loc	22 730 40               ## /Library/Developer/CommandLineTools/usr/bin/../include/c++/v1/ostream:730:40
	addq	%rdx, %rcx
	.loc	22 731 34 is_stmt 1     ## /Library/Developer/CommandLineTools/usr/bin/../include/c++/v1/ostream:731:34
	movq	-8(%rbp), %rdx
	movq	(%rdx), %rsi
	movq	-24(%rsi), %rsi
	addq	%rsi, %rdx
Ltmp428:
	.loc	22 732 39               ## /Library/Developer/CommandLineTools/usr/bin/../include/c++/v1/ostream:732:39
	movq	%rdx, %rdi
	movq	%rax, -112(%rbp)        ## 8-byte Spill
	movq	%rcx, -120(%rbp)        ## 8-byte Spill
	movq	%rdx, -128(%rbp)        ## 8-byte Spill
	callq	__ZNKSt3__19basic_iosIcNS_11char_traitsIcEEE4fillEv
Ltmp429:
	movb	%al, -129(%rbp)         ## 1-byte Spill
	jmp	LBB130_8
LBB130_8:
	.loc	22 725 17               ## /Library/Developer/CommandLineTools/usr/bin/../include/c++/v1/ostream:725:17
	movq	-72(%rbp), %rdi
Ltmp430:
	movb	-129(%rbp), %al         ## 1-byte Reload
	movsbl	%al, %r9d
	movq	-88(%rbp), %rsi         ## 8-byte Reload
	movq	-112(%rbp), %rdx        ## 8-byte Reload
	movq	-120(%rbp), %rcx        ## 8-byte Reload
	movq	-128(%rbp), %r8         ## 8-byte Reload
	callq	__ZNSt3__116__pad_and_outputIcNS_11char_traitsIcEEEENS_19ostreambuf_iteratorIT_T0_EES6_PKS4_S8_S8_RNS_8ios_baseES4_
Ltmp431:
	movq	%rax, -144(%rbp)        ## 8-byte Spill
	jmp	LBB130_9
LBB130_9:
	.loc	22 0 17 is_stmt 0       ## /Library/Developer/CommandLineTools/usr/bin/../include/c++/v1/ostream:0:17
	movq	-144(%rbp), %rax        ## 8-byte Reload
	.loc	22 725 17               ## /Library/Developer/CommandLineTools/usr/bin/../include/c++/v1/ostream:725:17
	movq	%rax, -64(%rbp)
	.loc	22 732 47 is_stmt 1     ## /Library/Developer/CommandLineTools/usr/bin/../include/c++/v1/ostream:732:47
	leaq	-64(%rbp), %rdi
	callq	__ZNKSt3__119ostreambuf_iteratorIcNS_11char_traitsIcEEE6failedEv
Ltmp445:
	.loc	22 725 17               ## /Library/Developer/CommandLineTools/usr/bin/../include/c++/v1/ostream:725:17
	testb	$1, %al
	jne	LBB130_10
	jmp	LBB130_17
LBB130_10:
Ltmp446:
	.loc	22 733 17               ## /Library/Developer/CommandLineTools/usr/bin/../include/c++/v1/ostream:733:17
	movq	-8(%rbp), %rax
	movq	(%rax), %rcx
	movq	-24(%rcx), %rcx
	addq	%rcx, %rax
Ltmp432:
	movl	$5, %esi
	.loc	22 733 22 is_stmt 0     ## /Library/Developer/CommandLineTools/usr/bin/../include/c++/v1/ostream:733:22
	movq	%rax, %rdi
	callq	__ZNSt3__19basic_iosIcNS_11char_traitsIcEEE8setstateEj
Ltmp433:
	jmp	LBB130_11
LBB130_11:
	.loc	22 733 17               ## /Library/Developer/CommandLineTools/usr/bin/../include/c++/v1/ostream:733:17
	jmp	LBB130_17
Ltmp447:
LBB130_12:
Ltmp423:
                                        ## kill: def $edx killed $edx killed $rdx
	.loc	22 743 1 is_stmt 1      ## /Library/Developer/CommandLineTools/usr/bin/../include/c++/v1/ostream:743:1
	movq	%rax, -48(%rbp)
	movl	%edx, -52(%rbp)
	jmp	LBB130_14
LBB130_13:
Ltmp434:
                                        ## kill: def $edx killed $edx killed $rdx
Ltmp448:
	.loc	22 743 1 is_stmt 0      ## /Library/Developer/CommandLineTools/usr/bin/../include/c++/v1/ostream:743:1
	movq	%rax, -48(%rbp)
	movl	%edx, -52(%rbp)
Ltmp449:
	.loc	22 736 5 is_stmt 1      ## /Library/Developer/CommandLineTools/usr/bin/../include/c++/v1/ostream:736:5
	leaq	-40(%rbp), %rdi
	callq	__ZNSt3__113basic_ostreamIcNS_11char_traitsIcEEE6sentryD1Ev
LBB130_14:
Ltmp450:
	.loc	22 736 5 is_stmt 0      ## /Library/Developer/CommandLineTools/usr/bin/../include/c++/v1/ostream:736:5
	movq	-48(%rbp), %rdi
	callq	___cxa_begin_catch
Ltmp451:
	.loc	22 739 9 is_stmt 1      ## /Library/Developer/CommandLineTools/usr/bin/../include/c++/v1/ostream:739:9
	movq	-8(%rbp), %rcx
	movq	(%rcx), %rdx
	movq	-24(%rdx), %rdx
	addq	%rdx, %rcx
Ltmp435:
	.loc	22 739 14 is_stmt 0     ## /Library/Developer/CommandLineTools/usr/bin/../include/c++/v1/ostream:739:14
	movq	%rcx, %rdi
	movq	%rax, -152(%rbp)        ## 8-byte Spill
	callq	__ZNSt3__18ios_base33__set_badbit_and_consider_rethrowEv
Ltmp436:
	jmp	LBB130_15
LBB130_15:
	.loc	22 740 5 is_stmt 1      ## /Library/Developer/CommandLineTools/usr/bin/../include/c++/v1/ostream:740:5
	callq	___cxa_end_catch
Ltmp452:
LBB130_16:
	.loc	22 742 12               ## /Library/Developer/CommandLineTools/usr/bin/../include/c++/v1/ostream:742:12
	movq	-8(%rbp), %rax
	.loc	22 742 5 is_stmt 0      ## /Library/Developer/CommandLineTools/usr/bin/../include/c++/v1/ostream:742:5
	addq	$160, %rsp
	popq	%rbp
	retq
LBB130_17:
Ltmp453:
	.loc	22 734 9 is_stmt 1      ## /Library/Developer/CommandLineTools/usr/bin/../include/c++/v1/ostream:734:9
	jmp	LBB130_18
Ltmp454:
LBB130_18:
	.loc	22 736 5                ## /Library/Developer/CommandLineTools/usr/bin/../include/c++/v1/ostream:736:5
	leaq	-40(%rbp), %rdi
	callq	__ZNSt3__113basic_ostreamIcNS_11char_traitsIcEEE6sentryD1Ev
Ltmp455:
	.loc	22 736 5 is_stmt 0      ## /Library/Developer/CommandLineTools/usr/bin/../include/c++/v1/ostream:736:5
	jmp	LBB130_16
Ltmp456:
LBB130_19:
Ltmp437:
                                        ## kill: def $edx killed $edx killed $rdx
	.loc	22 743 1 is_stmt 1      ## /Library/Developer/CommandLineTools/usr/bin/../include/c++/v1/ostream:743:1
	movq	%rax, -48(%rbp)
	movl	%edx, -52(%rbp)
Ltmp438:
	.loc	22 740 5                ## /Library/Developer/CommandLineTools/usr/bin/../include/c++/v1/ostream:740:5
	callq	___cxa_end_catch
Ltmp439:
	jmp	LBB130_20
LBB130_20:
	jmp	LBB130_21
LBB130_21:
	movq	-48(%rbp), %rdi
	callq	__Unwind_Resume
	ud2
LBB130_22:
Ltmp440:
	movq	%rax, %rdi
	movq	%rdx, -160(%rbp)        ## 8-byte Spill
	callq	___clang_call_terminate
Ltmp457:
Lfunc_end130:
	.cfi_endproc
	.section	__TEXT,__gcc_except_tab
	.p2align	2
GCC_except_table130:
Lexception11:
	.byte	255                     ## @LPStart Encoding = omit
	.byte	155                     ## @TType Encoding = indirect pcrel sdata4
	.uleb128 Lttbase7-Lttbaseref7
Lttbaseref7:
	.byte	1                       ## Call site Encoding = uleb128
	.uleb128 Lcst_end11-Lcst_begin11
Lcst_begin11:
	.uleb128 Ltmp421-Lfunc_begin130 ## >> Call Site 1 <<
	.uleb128 Ltmp422-Ltmp421        ##   Call between Ltmp421 and Ltmp422
	.uleb128 Ltmp423-Lfunc_begin130 ##     jumps to Ltmp423
	.byte	1                       ##   On action: 1
	.uleb128 Ltmp424-Lfunc_begin130 ## >> Call Site 2 <<
	.uleb128 Ltmp433-Ltmp424        ##   Call between Ltmp424 and Ltmp433
	.uleb128 Ltmp434-Lfunc_begin130 ##     jumps to Ltmp434
	.byte	1                       ##   On action: 1
	.uleb128 Ltmp433-Lfunc_begin130 ## >> Call Site 3 <<
	.uleb128 Ltmp435-Ltmp433        ##   Call between Ltmp433 and Ltmp435
	.byte	0                       ##     has no landing pad
	.byte	0                       ##   On action: cleanup
	.uleb128 Ltmp435-Lfunc_begin130 ## >> Call Site 4 <<
	.uleb128 Ltmp436-Ltmp435        ##   Call between Ltmp435 and Ltmp436
	.uleb128 Ltmp437-Lfunc_begin130 ##     jumps to Ltmp437
	.byte	0                       ##   On action: cleanup
	.uleb128 Ltmp436-Lfunc_begin130 ## >> Call Site 5 <<
	.uleb128 Ltmp438-Ltmp436        ##   Call between Ltmp436 and Ltmp438
	.byte	0                       ##     has no landing pad
	.byte	0                       ##   On action: cleanup
	.uleb128 Ltmp438-Lfunc_begin130 ## >> Call Site 6 <<
	.uleb128 Ltmp439-Ltmp438        ##   Call between Ltmp438 and Ltmp439
	.uleb128 Ltmp440-Lfunc_begin130 ##     jumps to Ltmp440
	.byte	1                       ##   On action: 1
	.uleb128 Ltmp439-Lfunc_begin130 ## >> Call Site 7 <<
	.uleb128 Lfunc_end130-Ltmp439   ##   Call between Ltmp439 and Lfunc_end130
	.byte	0                       ##     has no landing pad
	.byte	0                       ##   On action: cleanup
Lcst_end11:
	.byte	1                       ## >> Action Record 1 <<
                                        ##   Catch TypeInfo 1
	.byte	0                       ##   No further actions
	.p2align	2
                                        ## >> Catch TypeInfos <<
	.long	0                       ## TypeInfo 1
Lttbase7:
	.p2align	2
                                        ## -- End function
	.section	__TEXT,__text,regular,pure_instructions
	.globl	__ZNSt3__111char_traitsIcE6lengthEPKc ## -- Begin function _ZNSt3__111char_traitsIcE6lengthEPKc
	.weak_definition	__ZNSt3__111char_traitsIcE6lengthEPKc
	.p2align	4, 0x90
__ZNSt3__111char_traitsIcE6lengthEPKc:  ## @_ZNSt3__111char_traitsIcE6lengthEPKc
Lfunc_begin131:
	.loc	12 217 0                ## /Library/Developer/CommandLineTools/usr/bin/../include/c++/v1/__string:217:0
	.cfi_startproc
## %bb.0:
	pushq	%rbp
	.cfi_def_cfa_offset 16
	.cfi_offset %rbp, -16
	movq	%rsp, %rbp
	.cfi_def_cfa_register %rbp
	subq	$16, %rsp
	movq	%rdi, -8(%rbp)
Ltmp458:
	.loc	12 217 70 prologue_end  ## /Library/Developer/CommandLineTools/usr/bin/../include/c++/v1/__string:217:70
	movq	-8(%rbp), %rdi
	.loc	12 217 53 is_stmt 0     ## /Library/Developer/CommandLineTools/usr/bin/../include/c++/v1/__string:217:53
	callq	_strlen
	.loc	12 217 46               ## /Library/Developer/CommandLineTools/usr/bin/../include/c++/v1/__string:217:46
	addq	$16, %rsp
	popq	%rbp
	retq
Ltmp459:
Lfunc_end131:
	.cfi_endproc
                                        ## -- End function
	.p2align	4, 0x90         ## -- Begin function _ZNKSt3__113basic_ostreamIcNS_11char_traitsIcEEE6sentrycvbEv
__ZNKSt3__113basic_ostreamIcNS_11char_traitsIcEEE6sentrycvbEv: ## @_ZNKSt3__113basic_ostreamIcNS_11char_traitsIcEEE6sentrycvbEv
Lfunc_begin132:
	.loc	22 254 0 is_stmt 1      ## /Library/Developer/CommandLineTools/usr/bin/../include/c++/v1/ostream:254:0
	.cfi_startproc
## %bb.0:
	pushq	%rbp
	.cfi_def_cfa_offset 16
	.cfi_offset %rbp, -16
	movq	%rsp, %rbp
	.cfi_def_cfa_register %rbp
	movq	%rdi, -8(%rbp)
	movq	-8(%rbp), %rax
Ltmp460:
	.loc	22 254 39 prologue_end  ## /Library/Developer/CommandLineTools/usr/bin/../include/c++/v1/ostream:254:39
	movb	(%rax), %cl
	.loc	22 254 32 is_stmt 0     ## /Library/Developer/CommandLineTools/usr/bin/../include/c++/v1/ostream:254:32
	andb	$1, %cl
	movzbl	%cl, %eax
	popq	%rbp
	retq
Ltmp461:
Lfunc_end132:
	.cfi_endproc
                                        ## -- End function
	.private_extern	__ZNSt3__116__pad_and_outputIcNS_11char_traitsIcEEEENS_19ostreambuf_iteratorIT_T0_EES6_PKS4_S8_S8_RNS_8ios_baseES4_ ## -- Begin function _ZNSt3__116__pad_and_outputIcNS_11char_traitsIcEEEENS_19ostreambuf_iteratorIT_T0_EES6_PKS4_S8_S8_RNS_8ios_baseES4_
	.globl	__ZNSt3__116__pad_and_outputIcNS_11char_traitsIcEEEENS_19ostreambuf_iteratorIT_T0_EES6_PKS4_S8_S8_RNS_8ios_baseES4_
	.weak_definition	__ZNSt3__116__pad_and_outputIcNS_11char_traitsIcEEEENS_19ostreambuf_iteratorIT_T0_EES6_PKS4_S8_S8_RNS_8ios_baseES4_
	.p2align	4, 0x90
__ZNSt3__116__pad_and_outputIcNS_11char_traitsIcEEEENS_19ostreambuf_iteratorIT_T0_EES6_PKS4_S8_S8_RNS_8ios_baseES4_: ## @_ZNSt3__116__pad_and_outputIcNS_11char_traitsIcEEEENS_19ostreambuf_iteratorIT_T0_EES6_PKS4_S8_S8_RNS_8ios_baseES4_
Lfunc_begin133:
	.file	70 "/Library/Developer/CommandLineTools/usr/bin/../include/c++/v1" "locale"
	.loc	70 1381 0 is_stmt 1     ## /Library/Developer/CommandLineTools/usr/bin/../include/c++/v1/locale:1381:0
	.cfi_startproc
	.cfi_personality 155, ___gxx_personality_v0
	.cfi_lsda 16, Lexception12
## %bb.0:
	pushq	%rbp
	.cfi_def_cfa_offset 16
	.cfi_offset %rbp, -16
	movq	%rsp, %rbp
	.cfi_def_cfa_register %rbp
	subq	$144, %rsp
                                        ## kill: def $r9b killed $r9b killed $r9d
	movq	%rdi, -16(%rbp)
	movq	%rsi, -24(%rbp)
	movq	%rdx, -32(%rbp)
	movq	%rcx, -40(%rbp)
	movq	%r8, -48(%rbp)
	movb	%r9b, -49(%rbp)
Ltmp465:
	.loc	70 1382 21 prologue_end ## /Library/Developer/CommandLineTools/usr/bin/../include/c++/v1/locale:1382:21
	cmpq	$0, -16(%rbp)
Ltmp466:
	.loc	70 1382 9 is_stmt 0     ## /Library/Developer/CommandLineTools/usr/bin/../include/c++/v1/locale:1382:9
	jne	LBB133_2
## %bb.1:
Ltmp467:
