	.section	__TEXT,__text,regular,pure_instructions
	.build_version macos, 10, 15	sdk_version 10, 15, 4
	.file	1 "/Library/Developer/CommandLineTools/usr/bin/../include/c++/v1" "ios"
	.file	2 "/Library/Developer/CommandLineTools/usr/lib/clang/11.0.3/include" "stddef.h"
	.file	3 "/Library/Developer/CommandLineTools/SDKs/MacOSX.sdk/usr/include/i386" "_types.h"
	.file	4 "/Library/Developer/CommandLineTools/SDKs/MacOSX.sdk/usr/include/sys/_types" "_size_t.h"
	.file	5 "/Library/Developer/CommandLineTools/usr/bin/../include/c++/v1" "__locale"
	.file	6 "/Library/Developer/CommandLineTools/usr/bin/../include/c++/v1" "string"
	.file	7 "/Library/Developer/CommandLineTools/usr/bin/../include/c++/v1" "memory"
	.file	8 "/Library/Developer/CommandLineTools/usr/bin/../include/c++/v1" "type_traits"
	.file	9 "/Library/Developer/CommandLineTools/usr/bin/../include/c++/v1" "initializer_list"
	.file	10 "/Library/Developer/CommandLineTools/usr/bin/../include/c++/v1" "string_view"
	.file	11 "/Library/Developer/CommandLineTools/usr/bin/../include/c++/v1" "__string"
	.file	12 "/Library/Developer/CommandLineTools/usr/bin/../include/c++/v1" "iosfwd"
	.file	13 "/Library/Developer/CommandLineTools/usr/bin/../include/c++/v1" "mutex"
	.file	14 "/Library/Developer/CommandLineTools/SDKs/MacOSX.sdk/usr/include/sys/_types" "_int32_t.h"
	.file	15 "/Library/Developer/CommandLineTools/usr/bin/../include/c++/v1" "iterator"
	.file	16 "/Library/Developer/CommandLineTools/usr/bin/../include/c++/v1" "streambuf"
	.file	17 "/Library/Developer/CommandLineTools/usr/bin/../include/c++/v1" "ostream"
	.file	18 "/Library/Developer/CommandLineTools/usr/bin/../include/c++/v1" "cstddef"
	.file	19 "/Library/Developer/CommandLineTools/usr/lib/clang/11.0.3/include" "__stddef_max_align_t.h"
	.file	20 "/Library/Developer/CommandLineTools/usr/bin/../include/c++/v1" "cstring"
	.file	21 "/Library/Developer/CommandLineTools/SDKs/MacOSX.sdk/usr/include" "string.h"
	.file	22 "/Library/Developer/CommandLineTools/usr/bin/../include/c++/v1" "string.h"
	.file	23 "/Library/Developer/CommandLineTools/SDKs/MacOSX.sdk/usr/include/sys/_types" "_int8_t.h"
	.file	24 "/Library/Developer/CommandLineTools/usr/bin/../include/c++/v1" "cstdint"
	.file	25 "/Library/Developer/CommandLineTools/SDKs/MacOSX.sdk/usr/include/sys/_types" "_int16_t.h"
	.file	26 "/Library/Developer/CommandLineTools/SDKs/MacOSX.sdk/usr/include/sys/_types" "_int64_t.h"
	.file	27 "/Library/Developer/CommandLineTools/SDKs/MacOSX.sdk/usr/include/_types" "_uint8_t.h"
	.file	28 "/Library/Developer/CommandLineTools/SDKs/MacOSX.sdk/usr/include/_types" "_uint16_t.h"
	.file	29 "/Library/Developer/CommandLineTools/SDKs/MacOSX.sdk/usr/include/_types" "_uint32_t.h"
	.file	30 "/Library/Developer/CommandLineTools/SDKs/MacOSX.sdk/usr/include/_types" "_uint64_t.h"
	.file	31 "/Library/Developer/CommandLineTools/SDKs/MacOSX.sdk/usr/include" "stdint.h"
	.file	32 "/Library/Developer/CommandLineTools/SDKs/MacOSX.sdk/usr/include/sys/_types" "_intptr_t.h"
	.file	33 "/Library/Developer/CommandLineTools/SDKs/MacOSX.sdk/usr/include/sys/_types" "_uintptr_t.h"
	.file	34 "/Library/Developer/CommandLineTools/SDKs/MacOSX.sdk/usr/include/_types" "_intmax_t.h"
	.file	35 "/Library/Developer/CommandLineTools/SDKs/MacOSX.sdk/usr/include/_types" "_uintmax_t.h"
	.file	36 "/Library/Developer/CommandLineTools/usr/bin/../include/c++/v1" "cstdlib"
	.file	37 "/Library/Developer/CommandLineTools/SDKs/MacOSX.sdk/usr/include" "stdlib.h"
	.file	38 "/Library/Developer/CommandLineTools/SDKs/MacOSX.sdk/usr/include/malloc" "_malloc.h"
	.file	39 "/Library/Developer/CommandLineTools/usr/bin/../include/c++/v1" "stdlib.h"
	.file	40 "/Library/Developer/CommandLineTools/SDKs/MacOSX.sdk/usr/include" "_stdio.h"
	.file	41 "/Library/Developer/CommandLineTools/SDKs/MacOSX.sdk/usr/include/sys" "_types.h"
	.file	42 "/Library/Developer/CommandLineTools/usr/bin/../include/c++/v1" "cstdio"
	.file	43 "/Library/Developer/CommandLineTools/SDKs/MacOSX.sdk/usr/include" "stdio.h"
	.file	44 "/Library/Developer/CommandLineTools/SDKs/MacOSX.sdk/usr/include" "_ctype.h"
	.file	45 "/Library/Developer/CommandLineTools/usr/bin/../include/c++/v1" "cctype"
	.file	46 "/Library/Developer/CommandLineTools/SDKs/MacOSX.sdk/usr/include/sys/_types" "_wint_t.h"
	.file	47 "/Library/Developer/CommandLineTools/usr/bin/../include/c++/v1" "cwctype"
	.file	48 "/Library/Developer/CommandLineTools/SDKs/MacOSX.sdk/usr/include" "_types.h"
	.file	49 "/Library/Developer/CommandLineTools/SDKs/MacOSX.sdk/usr/include/_types" "_wctrans_t.h"
	.file	50 "/Library/Developer/CommandLineTools/SDKs/MacOSX.sdk/usr/include/_types" "_wctype_t.h"
	.file	51 "/Library/Developer/CommandLineTools/SDKs/MacOSX.sdk/usr/include" "_wctype.h"
	.file	52 "/Library/Developer/CommandLineTools/SDKs/MacOSX.sdk/usr/include" "wctype.h"
	.file	53 "/Library/Developer/CommandLineTools/SDKs/MacOSX.sdk/usr/include/sys/_types" "_mbstate_t.h"
	.file	54 "/Library/Developer/CommandLineTools/usr/bin/../include/c++/v1" "cwchar"
	.file	55 "/Library/Developer/CommandLineTools/SDKs/MacOSX.sdk/usr/include" "time.h"
	.file	56 "/Library/Developer/CommandLineTools/SDKs/MacOSX.sdk/usr/include" "wchar.h"
	.file	57 "/Library/Developer/CommandLineTools/usr/bin/../include/c++/v1" "wchar.h"
	.file	58 "/Library/Developer/CommandLineTools/SDKs/MacOSX.sdk/usr/include/sys/_types" "_clock_t.h"
	.file	59 "/Library/Developer/CommandLineTools/usr/bin/../include/c++/v1" "ctime"
	.file	60 "/Library/Developer/CommandLineTools/SDKs/MacOSX.sdk/usr/include/sys/_types" "_time_t.h"
	.file	61 "/Users/kendrick/my_workspace/c_cpp_workspace/cpp_primer" "screen.cpp"
	.globl	__ZN6Screen3setEmmc     ## -- Begin function _ZN6Screen3setEmmc
	.p2align	4, 0x90
__ZN6Screen3setEmmc:                    ## @_ZN6Screen3setEmmc
Lfunc_begin0:
	.loc	61 46 0                 ## screen.cpp:46:0
	.cfi_startproc
## %bb.0:
	pushq	%rbp
	.cfi_def_cfa_offset 16
	.cfi_offset %rbp, -16
	movq	%rsp, %rbp
	.cfi_def_cfa_register %rbp
	subq	$48, %rsp
                                        ## kill: def $cl killed $cl killed $ecx
	movq	%rdi, -8(%rbp)
	movq	%rsi, -16(%rbp)
	movq	%rdx, -24(%rbp)
	movb	%cl, -25(%rbp)
	movq	-8(%rbp), %rax
Ltmp0:
	.loc	61 47 31 prologue_end   ## screen.cpp:47:31
	movb	-25(%rbp), %cl
	.loc	61 47 5 is_stmt 0       ## screen.cpp:47:5
	movq	%rax, %rdx
	addq	$24, %rdx
	.loc	61 47 14                ## screen.cpp:47:14
	movq	-16(%rbp), %rsi
	.loc	61 47 16                ## screen.cpp:47:16
	imulq	16(%rax), %rsi
	.loc	61 47 24                ## screen.cpp:47:24
	addq	-24(%rbp), %rsi
	.loc	61 47 5                 ## screen.cpp:47:5
	movq	%rdx, %rdi
	movq	%rax, -40(%rbp)         ## 8-byte Spill
	movb	%cl, -41(%rbp)          ## 1-byte Spill
	callq	__ZNSt3__112basic_stringIcNS_11char_traitsIcEENS_9allocatorIcEEEixEm
	movb	-41(%rbp), %cl          ## 1-byte Reload
	.loc	61 47 29                ## screen.cpp:47:29
	movb	%cl, (%rax)
	movq	-40(%rbp), %rax         ## 8-byte Reload
	.loc	61 48 5 is_stmt 1       ## screen.cpp:48:5
	addq	$48, %rsp
	popq	%rbp
	retq
Ltmp1:
Lfunc_end0:
	.cfi_endproc
                                        ## -- End function
	.p2align	4, 0x90         ## -- Begin function _ZNSt3__112basic_stringIcNS_11char_traitsIcEENS_9allocatorIcEEEixEm
__ZNSt3__112basic_stringIcNS_11char_traitsIcEENS_9allocatorIcEEEixEm: ## @_ZNSt3__112basic_stringIcNS_11char_traitsIcEENS_9allocatorIcEEEixEm
Lfunc_begin1:
	.loc	6 3204 0                ## /Library/Developer/CommandLineTools/usr/bin/../include/c++/v1/string:3204:0
	.cfi_startproc
## %bb.0:
	pushq	%rbp
	.cfi_def_cfa_offset 16
	.cfi_offset %rbp, -16
	movq	%rsp, %rbp
	.cfi_def_cfa_register %rbp
	subq	$16, %rsp
	movq	%rdi, -8(%rbp)
	movq	%rsi, -16(%rbp)
	movq	-8(%rbp), %rdi
Ltmp2:
	.loc	6 3206 14 prologue_end  ## /Library/Developer/CommandLineTools/usr/bin/../include/c++/v1/string:3206:14
	callq	__ZNSt3__112basic_stringIcNS_11char_traitsIcEENS_9allocatorIcEEE13__get_pointerEv
	.loc	6 3206 30 is_stmt 0     ## /Library/Developer/CommandLineTools/usr/bin/../include/c++/v1/string:3206:30
	addq	-16(%rbp), %rax
	.loc	6 3206 5                ## /Library/Developer/CommandLineTools/usr/bin/../include/c++/v1/string:3206:5
	addq	$16, %rsp
	popq	%rbp
	retq
Ltmp3:
Lfunc_end1:
	.cfi_endproc
                                        ## -- End function
	.globl	__ZN10Window_mgr5clearEv ## -- Begin function _ZN10Window_mgr5clearEv
	.p2align	4, 0x90
__ZN10Window_mgr5clearEv:               ## @_ZN10Window_mgr5clearEv
Lfunc_begin2:
	.loc	61 63 0 is_stmt 1       ## screen.cpp:63:0
	.cfi_startproc
## %bb.0:
	pushq	%rbp
	.cfi_def_cfa_offset 16
	.cfi_offset %rbp, -16
	movq	%rsp, %rbp
	.cfi_def_cfa_register %rbp
	subq	$48, %rsp
	movq	%rdi, -8(%rbp)
	movq	-8(%rbp), %rax
Ltmp4:
	.loc	61 64 26 prologue_end   ## screen.cpp:64:26
	movq	(%rax), %rcx
	.loc	61 64 29 is_stmt 0      ## screen.cpp:64:29
	movq	8(%rcx), %rcx
	.loc	61 64 38                ## screen.cpp:64:38
	movq	(%rax), %rdx
	.loc	61 64 36                ## screen.cpp:64:36
	imulq	16(%rdx), %rcx
	.loc	61 64 19                ## screen.cpp:64:19
	leaq	-32(%rbp), %rdi
	movq	%rcx, %rsi
	movl	$32, %edx
	movq	%rax, -40(%rbp)         ## 8-byte Spill
	callq	__ZNSt3__112basic_stringIcNS_11char_traitsIcEENS_9allocatorIcEEEC1Emc
	movq	-40(%rbp), %rax         ## 8-byte Reload
	.loc	61 64 5                 ## screen.cpp:64:5
	movq	(%rax), %rcx
	.loc	61 64 8                 ## screen.cpp:64:8
	addq	$24, %rcx
	.loc	61 64 17                ## screen.cpp:64:17
	movq	%rcx, %rdi
	leaq	-32(%rbp), %rsi
	callq	__ZNSt3__112basic_stringIcNS_11char_traitsIcEENS_9allocatorIcEEEaSEOS5_
	.loc	61 64 5                 ## screen.cpp:64:5
	leaq	-32(%rbp), %rdi
	movq	%rax, -48(%rbp)         ## 8-byte Spill
	callq	__ZNSt3__112basic_stringIcNS_11char_traitsIcEENS_9allocatorIcEEED1Ev
	.loc	61 65 1 is_stmt 1       ## screen.cpp:65:1
	addq	$48, %rsp
	popq	%rbp
	retq
Ltmp5:
Lfunc_end2:
	.cfi_endproc
                                        ## -- End function
	.p2align	4, 0x90         ## -- Begin function _ZNSt3__112basic_stringIcNS_11char_traitsIcEENS_9allocatorIcEEEC1Emc
__ZNSt3__112basic_stringIcNS_11char_traitsIcEENS_9allocatorIcEEEC1Emc: ## @_ZNSt3__112basic_stringIcNS_11char_traitsIcEENS_9allocatorIcEEEC1Emc
Lfunc_begin3:
	.loc	6 1926 0                ## /Library/Developer/CommandLineTools/usr/bin/../include/c++/v1/string:1926:0
	.cfi_startproc
## %bb.0:
	pushq	%rbp
	.cfi_def_cfa_offset 16
	.cfi_offset %rbp, -16
	movq	%rsp, %rbp
	.cfi_def_cfa_register %rbp
	subq	$32, %rsp
                                        ## kill: def $dl killed $dl killed $edx
	movq	%rdi, -8(%rbp)
	movq	%rsi, -16(%rbp)
	movb	%dl, -17(%rbp)
	movq	-8(%rbp), %rdi
Ltmp6:
	.loc	6 1926 1 prologue_end   ## /Library/Developer/CommandLineTools/usr/bin/../include/c++/v1/string:1926:1
	movq	-16(%rbp), %rsi
	movsbl	-17(%rbp), %edx
	callq	__ZNSt3__112basic_stringIcNS_11char_traitsIcEENS_9allocatorIcEEEC2Emc
	.loc	6 1931 1                ## /Library/Developer/CommandLineTools/usr/bin/../include/c++/v1/string:1931:1
	addq	$32, %rsp
	popq	%rbp
	retq
Ltmp7:
Lfunc_end3:
	.cfi_endproc
                                        ## -- End function
	.p2align	4, 0x90         ## -- Begin function _ZNSt3__112basic_stringIcNS_11char_traitsIcEENS_9allocatorIcEEEaSEOS5_
__ZNSt3__112basic_stringIcNS_11char_traitsIcEENS_9allocatorIcEEEaSEOS5_: ## @_ZNSt3__112basic_stringIcNS_11char_traitsIcEENS_9allocatorIcEEEaSEOS5_
Lfunc_begin4:
	.loc	6 2303 0                ## /Library/Developer/CommandLineTools/usr/bin/../include/c++/v1/string:2303:0
	.cfi_startproc
## %bb.0:
	pushq	%rbp
	.cfi_def_cfa_offset 16
	.cfi_offset %rbp, -16
	movq	%rsp, %rbp
	.cfi_def_cfa_register %rbp
	subq	$32, %rsp
	movq	%rdi, -8(%rbp)
	movq	%rsi, -16(%rbp)
	movq	-8(%rbp), %rax
Ltmp8:
	.loc	6 2304 19 prologue_end  ## /Library/Developer/CommandLineTools/usr/bin/../include/c++/v1/string:2304:19
	movq	-16(%rbp), %rsi
	.loc	6 2304 5 is_stmt 0      ## /Library/Developer/CommandLineTools/usr/bin/../include/c++/v1/string:2304:5
	movq	%rax, %rdi
	movq	%rax, -32(%rbp)         ## 8-byte Spill
	callq	__ZNSt3__112basic_stringIcNS_11char_traitsIcEENS_9allocatorIcEEE13__move_assignERS5_NS_17integral_constantIbLb1EEE
	movq	-32(%rbp), %rax         ## 8-byte Reload
	.loc	6 2306 5 is_stmt 1      ## /Library/Developer/CommandLineTools/usr/bin/../include/c++/v1/string:2306:5
	addq	$32, %rsp
	popq	%rbp
	retq
Ltmp9:
Lfunc_end4:
	.cfi_endproc
                                        ## -- End function
	.globl	_main                   ## -- Begin function main
	.p2align	4, 0x90
_main:                                  ## @main
Lfunc_begin5:
	.loc	61 67 0                 ## screen.cpp:67:0
	.cfi_startproc
	.cfi_personality 155, ___gxx_personality_v0
	.cfi_lsda 16, Lexception0
## %bb.0:
	pushq	%rbp
	.cfi_def_cfa_offset 16
	.cfi_offset %rbp, -16
	movq	%rsp, %rbp
	.cfi_def_cfa_register %rbp
	subq	$80, %rsp
	leaq	-48(%rbp), %rax
	movl	$2, %esi
	movl	$10, %edx
	movl	$42, %ecx
Ltmp31:
	.loc	61 68 9 prologue_end    ## screen.cpp:68:9
	movq	%rax, %rdi
	movq	%rax, -80(%rbp)         ## 8-byte Spill
	callq	__ZN6ScreenC1Emmc
Ltmp10:
	.loc	61 69 11                ## screen.cpp:69:11
	movq	__ZNSt3__14coutE@GOTPCREL(%rip), %rsi
	movq	-80(%rbp), %rdi         ## 8-byte Reload
	callq	__ZN6Screen7displayERNSt3__113basic_ostreamIcNS0_11char_traitsIcEEEE
Ltmp11:
	jmp	LBB5_1
LBB5_1:
Ltmp12:
	.loc	61 70 7                 ## screen.cpp:70:7
	movq	__ZNSt3__14coutE@GOTPCREL(%rip), %rdi
	leaq	__ZNSt3__1L4endlIcNS_11char_traitsIcEEEERNS_13basic_ostreamIT_T0_EES7_(%rip), %rsi
	callq	__ZNSt3__113basic_ostreamIcNS_11char_traitsIcEEElsEPFRS3_S4_E
Ltmp13:
	jmp	LBB5_2
LBB5_2:
Ltmp14:
	.loc	61 0 7 is_stmt 0        ## screen.cpp:0:7
	leaq	-48(%rbp), %rdi
	movl	$1, %esi
	movl	$9, %edx
	movl	$77, %ecx
	.loc	61 71 11 is_stmt 1      ## screen.cpp:71:11
	callq	__ZN6Screen3setEmmc
Ltmp15:
	jmp	LBB5_3
LBB5_3:
Ltmp16:
	.loc	61 72 11                ## screen.cpp:72:11
	movq	__ZNSt3__14coutE@GOTPCREL(%rip), %rsi
	leaq	-48(%rbp), %rdi
	callq	__ZN6Screen7displayERNSt3__113basic_ostreamIcNS0_11char_traitsIcEEEE
Ltmp17:
	jmp	LBB5_4
LBB5_4:
Ltmp18:
	.loc	61 73 10                ## screen.cpp:73:10
	movq	__ZNSt3__14coutE@GOTPCREL(%rip), %rdi
	leaq	__ZNSt3__1L4endlIcNS_11char_traitsIcEEEERNS_13basic_ostreamIT_T0_EES7_(%rip), %rsi
	callq	__ZNSt3__113basic_ostreamIcNS_11char_traitsIcEEElsEPFRS3_S4_E
Ltmp19:
	jmp	LBB5_5
LBB5_5:
Ltmp20:
	.loc	61 74 10                ## screen.cpp:74:10
	movq	__ZNSt3__14coutE@GOTPCREL(%rip), %rdi
	leaq	__ZNSt3__1L4endlIcNS_11char_traitsIcEEEERNS_13basic_ostreamIT_T0_EES7_(%rip), %rsi
	callq	__ZNSt3__113basic_ostreamIcNS_11char_traitsIcEEElsEPFRS3_S4_E
Ltmp21:
	jmp	LBB5_6
LBB5_6:
Ltmp22:
	.loc	61 0 10 is_stmt 0       ## screen.cpp:0:10
	leaq	-72(%rbp), %rdi
	leaq	-48(%rbp), %rsi
	.loc	61 75 16 is_stmt 1      ## screen.cpp:75:16
	callq	__ZN10Window_mgrC1EP6Screen
Ltmp23:
	jmp	LBB5_7
LBB5_7:
Ltmp24:
	.loc	61 0 16 is_stmt 0       ## screen.cpp:0:16
	leaq	-72(%rbp), %rdi
	.loc	61 76 9 is_stmt 1       ## screen.cpp:76:9
	callq	__ZN10Window_mgr5clearEv
Ltmp25:
	jmp	LBB5_8
LBB5_8:
Ltmp26:
	.loc	61 77 11                ## screen.cpp:77:11
	movq	__ZNSt3__14coutE@GOTPCREL(%rip), %rsi
	leaq	-48(%rbp), %rdi
	callq	__ZN6Screen7displayERNSt3__113basic_ostreamIcNS0_11char_traitsIcEEEE
Ltmp27:
	jmp	LBB5_9
LBB5_9:
Ltmp28:
	.loc	61 78 10                ## screen.cpp:78:10
	movq	__ZNSt3__14coutE@GOTPCREL(%rip), %rdi
	leaq	__ZNSt3__1L4endlIcNS_11char_traitsIcEEEERNS_13basic_ostreamIT_T0_EES7_(%rip), %rsi
	callq	__ZNSt3__113basic_ostreamIcNS_11char_traitsIcEEElsEPFRS3_S4_E
Ltmp29:
	jmp	LBB5_10
LBB5_10:
	.loc	61 80 1                 ## screen.cpp:80:1
	leaq	-48(%rbp), %rdi
	callq	__ZN6ScreenD1Ev
	xorl	%eax, %eax
	addq	$80, %rsp
	popq	%rbp
	retq
LBB5_11:
Ltmp30:
                                        ## kill: def $edx killed $edx killed $rdx
	movq	%rax, -56(%rbp)
	movl	%edx, -60(%rbp)
	leaq	-48(%rbp), %rdi
	callq	__ZN6ScreenD1Ev
## %bb.12:
	movq	-56(%rbp), %rdi
	callq	__Unwind_Resume
	ud2
Ltmp32:
Lfunc_end5:
	.cfi_endproc
	.section	__TEXT,__gcc_except_tab
	.p2align	2
GCC_except_table5:
Lexception0:
	.byte	255                     ## @LPStart Encoding = omit
	.byte	255                     ## @TType Encoding = omit
	.byte	1                       ## Call site Encoding = uleb128
	.uleb128 Lcst_end0-Lcst_begin0
Lcst_begin0:
	.uleb128 Lfunc_begin5-Lfunc_begin5 ## >> Call Site 1 <<
	.uleb128 Ltmp10-Lfunc_begin5    ##   Call between Lfunc_begin5 and Ltmp10
	.byte	0                       ##     has no landing pad
	.byte	0                       ##   On action: cleanup
	.uleb128 Ltmp10-Lfunc_begin5    ## >> Call Site 2 <<
	.uleb128 Ltmp29-Ltmp10          ##   Call between Ltmp10 and Ltmp29
	.uleb128 Ltmp30-Lfunc_begin5    ##     jumps to Ltmp30
	.byte	0                       ##   On action: cleanup
	.uleb128 Ltmp29-Lfunc_begin5    ## >> Call Site 3 <<
	.uleb128 Lfunc_end5-Ltmp29      ##   Call between Ltmp29 and Lfunc_end5
	.byte	0                       ##     has no landing pad
	.byte	0                       ##   On action: cleanup
Lcst_end0:
	.p2align	2
                                        ## -- End function
	.section	__TEXT,__text,regular,pure_instructions
	.globl	__ZN6ScreenC1Emmc       ## -- Begin function _ZN6ScreenC1Emmc
	.weak_def_can_be_hidden	__ZN6ScreenC1Emmc
	.p2align	4, 0x90
__ZN6ScreenC1Emmc:                      ## @_ZN6ScreenC1Emmc
Lfunc_begin6:
	.loc	61 16 0                 ## screen.cpp:16:0
	.cfi_startproc
## %bb.0:
	pushq	%rbp
	.cfi_def_cfa_offset 16
	.cfi_offset %rbp, -16
	movq	%rsp, %rbp
	.cfi_def_cfa_register %rbp
	subq	$32, %rsp
                                        ## kill: def $cl killed $cl killed $ecx
	movq	%rdi, -8(%rbp)
	movq	%rsi, -16(%rbp)
	movq	%rdx, -24(%rbp)
	movb	%cl, -25(%rbp)
	movq	-8(%rbp), %rdi
Ltmp33:
	.loc	61 16 80 prologue_end   ## screen.cpp:16:80
	movq	-16(%rbp), %rsi
	movq	-24(%rbp), %rdx
	movsbl	-25(%rbp), %ecx
	callq	__ZN6ScreenC2Emmc
	.loc	61 16 81 is_stmt 0      ## screen.cpp:16:81
	addq	$32, %rsp
	popq	%rbp
	retq
Ltmp34:
Lfunc_end6:
	.cfi_endproc
                                        ## -- End function
	.globl	__ZN6Screen7displayERNSt3__113basic_ostreamIcNS0_11char_traitsIcEEEE ## -- Begin function _ZN6Screen7displayERNSt3__113basic_ostreamIcNS0_11char_traitsIcEEEE
	.weak_definition	__ZN6Screen7displayERNSt3__113basic_ostreamIcNS0_11char_traitsIcEEEE
	.p2align	4, 0x90
__ZN6Screen7displayERNSt3__113basic_ostreamIcNS0_11char_traitsIcEEEE: ## @_ZN6Screen7displayERNSt3__113basic_ostreamIcNS0_11char_traitsIcEEEE
Lfunc_begin7:
	.loc	61 21 0 is_stmt 1       ## screen.cpp:21:0
	.cfi_startproc
## %bb.0:
	pushq	%rbp
	.cfi_def_cfa_offset 16
	.cfi_offset %rbp, -16
	movq	%rsp, %rbp
	.cfi_def_cfa_register %rbp
	subq	$32, %rsp
	movq	%rdi, -8(%rbp)
	movq	%rsi, -16(%rbp)
	movq	-8(%rbp), %rax
Ltmp35:
	.loc	61 21 45 prologue_end   ## screen.cpp:21:45
	movq	-16(%rbp), %rsi
	.loc	61 21 34 is_stmt 0      ## screen.cpp:21:34
	movq	%rax, %rdi
	movq	%rax, -24(%rbp)         ## 8-byte Spill
	callq	__ZNK6Screen10do_displayERNSt3__113basic_ostreamIcNS0_11char_traitsIcEEEE
	movq	-24(%rbp), %rax         ## 8-byte Reload
	.loc	61 21 49                ## screen.cpp:21:49
	addq	$32, %rsp
	popq	%rbp
	retq
Ltmp36:
Lfunc_end7:
	.cfi_endproc
                                        ## -- End function
	.p2align	4, 0x90         ## -- Begin function _ZNSt3__113basic_ostreamIcNS_11char_traitsIcEEElsEPFRS3_S4_E
__ZNSt3__113basic_ostreamIcNS_11char_traitsIcEEElsEPFRS3_S4_E: ## @_ZNSt3__113basic_ostreamIcNS_11char_traitsIcEEElsEPFRS3_S4_E
Lfunc_begin8:
	.loc	17 195 0 is_stmt 1      ## /Library/Developer/CommandLineTools/usr/bin/../include/c++/v1/ostream:195:0
	.cfi_startproc
## %bb.0:
	pushq	%rbp
	.cfi_def_cfa_offset 16
	.cfi_offset %rbp, -16
	movq	%rsp, %rbp
	.cfi_def_cfa_register %rbp
	subq	$16, %rsp
	movq	%rdi, -8(%rbp)
	movq	%rsi, -16(%rbp)
	movq	-8(%rbp), %rdi
Ltmp37:
	.loc	17 195 14 prologue_end  ## /Library/Developer/CommandLineTools/usr/bin/../include/c++/v1/ostream:195:14
	callq	*-16(%rbp)
	.loc	17 195 7 is_stmt 0      ## /Library/Developer/CommandLineTools/usr/bin/../include/c++/v1/ostream:195:7
	addq	$16, %rsp
	popq	%rbp
	retq
Ltmp38:
Lfunc_end8:
	.cfi_endproc
                                        ## -- End function
	.p2align	4, 0x90         ## -- Begin function _ZNSt3__1L4endlIcNS_11char_traitsIcEEEERNS_13basic_ostreamIT_T0_EES7_
__ZNSt3__1L4endlIcNS_11char_traitsIcEEEERNS_13basic_ostreamIT_T0_EES7_: ## @_ZNSt3__1L4endlIcNS_11char_traitsIcEEEERNS_13basic_ostreamIT_T0_EES7_
Lfunc_begin9:
	.loc	17 1000 0 is_stmt 1     ## /Library/Developer/CommandLineTools/usr/bin/../include/c++/v1/ostream:1000:0
	.cfi_startproc
## %bb.0:
	pushq	%rbp
	.cfi_def_cfa_offset 16
	.cfi_offset %rbp, -16
	movq	%rsp, %rbp
	.cfi_def_cfa_register %rbp
	subq	$32, %rsp
	movq	%rdi, -8(%rbp)
Ltmp39:
	.loc	17 1001 5 prologue_end  ## /Library/Developer/CommandLineTools/usr/bin/../include/c++/v1/ostream:1001:5
	movq	-8(%rbp), %rdi
	.loc	17 1001 14 is_stmt 0    ## /Library/Developer/CommandLineTools/usr/bin/../include/c++/v1/ostream:1001:14
	movq	-8(%rbp), %rax
	movq	(%rax), %rcx
	movq	-24(%rcx), %rcx
	addq	%rcx, %rax
	movq	%rdi, -16(%rbp)         ## 8-byte Spill
	.loc	17 1001 19              ## /Library/Developer/CommandLineTools/usr/bin/../include/c++/v1/ostream:1001:19
	movq	%rax, %rdi
	movl	$10, %esi
	callq	__ZNKSt3__19basic_iosIcNS_11char_traitsIcEEE5widenEc
	movq	-16(%rbp), %rdi         ## 8-byte Reload
	.loc	17 1001 10              ## /Library/Developer/CommandLineTools/usr/bin/../include/c++/v1/ostream:1001:10
	movsbl	%al, %esi
	callq	__ZNSt3__113basic_ostreamIcNS_11char_traitsIcEEE3putEc
	.loc	17 1002 5 is_stmt 1     ## /Library/Developer/CommandLineTools/usr/bin/../include/c++/v1/ostream:1002:5
	movq	-8(%rbp), %rdi
	movq	%rax, -24(%rbp)         ## 8-byte Spill
	.loc	17 1002 10 is_stmt 0    ## /Library/Developer/CommandLineTools/usr/bin/../include/c++/v1/ostream:1002:10
	callq	__ZNSt3__113basic_ostreamIcNS_11char_traitsIcEEE5flushEv
	.loc	17 1003 12 is_stmt 1    ## /Library/Developer/CommandLineTools/usr/bin/../include/c++/v1/ostream:1003:12
	movq	-8(%rbp), %rcx
	movq	%rax, -32(%rbp)         ## 8-byte Spill
	.loc	17 1003 5 is_stmt 0     ## /Library/Developer/CommandLineTools/usr/bin/../include/c++/v1/ostream:1003:5
	movq	%rcx, %rax
	addq	$32, %rsp
	popq	%rbp
	retq
Ltmp40:
Lfunc_end9:
	.cfi_endproc
                                        ## -- End function
	.globl	__ZN10Window_mgrC1EP6Screen ## -- Begin function _ZN10Window_mgrC1EP6Screen
	.weak_def_can_be_hidden	__ZN10Window_mgrC1EP6Screen
	.p2align	4, 0x90
__ZN10Window_mgrC1EP6Screen:            ## @_ZN10Window_mgrC1EP6Screen
Lfunc_begin10:
	.loc	61 55 0 is_stmt 1       ## screen.cpp:55:0
	.cfi_startproc
## %bb.0:
	pushq	%rbp
	.cfi_def_cfa_offset 16
	.cfi_offset %rbp, -16
	movq	%rsp, %rbp
	.cfi_def_cfa_register %rbp
	subq	$16, %rsp
	movq	%rdi, -8(%rbp)
	movq	%rsi, -16(%rbp)
	movq	-8(%rbp), %rdi
Ltmp41:
	.loc	61 55 26 prologue_end   ## screen.cpp:55:26
	movq	-16(%rbp), %rsi
	callq	__ZN10Window_mgrC2EP6Screen
	.loc	61 57 5                 ## screen.cpp:57:5
	addq	$16, %rsp
	popq	%rbp
	retq
Ltmp42:
Lfunc_end10:
	.cfi_endproc
                                        ## -- End function
	.globl	__ZN6ScreenD1Ev         ## -- Begin function _ZN6ScreenD1Ev
	.weak_def_can_be_hidden	__ZN6ScreenD1Ev
	.p2align	4, 0x90
__ZN6ScreenD1Ev:                        ## @_ZN6ScreenD1Ev
Lfunc_begin11:
	.loc	61 9 0                  ## screen.cpp:9:0
	.cfi_startproc
## %bb.0:
	pushq	%rbp
	.cfi_def_cfa_offset 16
	.cfi_offset %rbp, -16
	movq	%rsp, %rbp
	.cfi_def_cfa_register %rbp
	subq	$16, %rsp
	movq	%rdi, -8(%rbp)
	movq	-8(%rbp), %rdi
Ltmp43:
	.loc	61 9 7 prologue_end     ## screen.cpp:9:7
	callq	__ZN6ScreenD2Ev
	addq	$16, %rsp
	popq	%rbp
	retq
Ltmp44:
Lfunc_end11:
	.cfi_endproc
                                        ## -- End function
	.globl	__ZN6ScreenC2Emmc       ## -- Begin function _ZN6ScreenC2Emmc
	.weak_def_can_be_hidden	__ZN6ScreenC2Emmc
	.p2align	4, 0x90
__ZN6ScreenC2Emmc:                      ## @_ZN6ScreenC2Emmc
Lfunc_begin12:
	.loc	61 16 0                 ## screen.cpp:16:0
	.cfi_startproc
## %bb.0:
	pushq	%rbp
	.cfi_def_cfa_offset 16
	.cfi_offset %rbp, -16
	movq	%rsp, %rbp
	.cfi_def_cfa_register %rbp
	subq	$32, %rsp
                                        ## kill: def $cl killed $cl killed $ecx
	movq	%rdi, -8(%rbp)
	movq	%rsi, -16(%rbp)
	movq	%rdx, -24(%rbp)
	movb	%cl, -25(%rbp)
	movq	-8(%rbp), %rax
Ltmp45:
	.loc	61 24 9 prologue_end    ## screen.cpp:24:9
	movq	$0, (%rax)
	.loc	61 16 44                ## screen.cpp:16:44
	movq	-16(%rbp), %rdx
	.loc	61 16 37 is_stmt 0      ## screen.cpp:16:37
	movq	%rdx, 8(%rax)
	.loc	61 16 55                ## rin:55
	movq	-24(%rbp), %rdx
	.loc	61 16 49                ## screen.cpp:16:49
	movq	%rdx, 16(%rax)
	.loc	61 16 60                ## screen.cpp:16:60
	addq	$24, %rax
	.loc	61 16 69                ## screen.cpp:16:69
	movq	-16(%rbp), %rdx
	.loc	61 16 72                ## screen.cpp:16:72
	imulq	-24(%rbp), %rdx
	.loc	61 16 60                ## screen.cpp:16:60
	movq	%rax, %rdi
	movq	%rdx, %rsi
	movsbl	-25(%rbp), %edx
	callq	__ZNSt3__112basic_stringIcNS_11char_traitsIcEENS_9allocatorIcEEEC1Emc
	.loc	61 16 81                ## screen.cpp:16:81
	addq	$32, %rsp
	popq	%rbp
	retq
Ltmp46:
Lfunc_end12:
	.cfi_endproc
                                        ## -- End function
	.globl	__ZNK6Screen10do_displayERNSt3__113basic_ostreamIcNS0_11char_traitsIcEEEE ## -- Begin function _ZNK6Screen10do_displayERNSt3__113basic_ostreamIcNS0_11char_traitsIcEEEE
	.weak_definition	__ZNK6Screen10do_displayERNSt3__113basic_ostreamIcNS0_11char_traitsIcEEEE
	.p2align	4, 0x90
__ZNK6Screen10do_displayERNSt3__113basic_ostreamIcNS0_11char_traitsIcEEEE: ## @_ZNK6Screen10do_displayERNSt3__113basic_ostreamIcNS0_11char_traitsIcEEEE
Lfunc_begin13:
	.loc	61 27 0 is_stmt 1       ## screen.cpp:27:0
	.cfi_startproc
## %bb.0:
	pushq	%rbp
	.cfi_def_cfa_offset 16
	.cfi_offset %rbp, -16
	movq	%rsp, %rbp
	.cfi_def_cfa_register %rbp
	subq	$16, %rsp
	movq	%rdi, -8(%rbp)
	movq	%rsi, -16(%rbp)
	movq	-8(%rbp), %rax
Ltmp47:
	.loc	61 27 39 prologue_end   ## screen.cpp:27:39
	movq	-16(%rbp), %rdi
	.loc	61 27 45 is_stmt 0      ## screen.cpp:27:45
	addq	$24, %rax
	.loc	61 27 42                ## screen.cpp:27:42
	movq	%rax, %rsi
	callq	__ZNSt3__1lsIcNS_11char_traitsIcEENS_9allocatorIcEEEERNS_13basic_ostreamIT_T0_EES9_RKNS_12basic_stringIS6_S7_T1_EE
	.loc	61 27 54                ## screen.cpp:27:54
	addq	$16, %rsp
	popq	%rbp
	retq
Ltmp48:
Lfunc_end13:
	.cfi_endproc
                                        ## -- End function
	.globl	__ZNSt3__1lsIcNS_11char_traitsIcEENS_9allocatorIcEEEERNS_13basic_ostreamIT_T0_EES9_RKNS_12basic_stringIS6_S7_T1_EE ## -- Begin function _ZNSt3__1lsIcNS_11char_traitsIcEENS_9allocatorIcEEEERNS_13basic_ostreamIT_T0_EES9_RKNS_12basic_stringIS6_S7_T1_EE
	.weak_definition	__ZNSt3__1lsIcNS_11char_traitsIcEENS_9allocatorIcEEEERNS_13basic_ostreamIT_T0_EES9_RKNS_12basic_stringIS6_S7_T1_EE
	.p2align	4, 0x90
__ZNSt3__1lsIcNS_11char_traitsIcEENS_9allocatorIcEEEERNS_13basic_ostreamIT_T0_EES9_RKNS_12basic_stringIS6_S7_T1_EE: ## @_ZNSt3__1lsIcNS_11char_traitsIcEENS_9allocatorIcEEEERNS_13basic_ostreamIT_T0_EES9_RKNS_12basic_stringIS6_S7_T1_EE
Lfunc_begin14:
	.loc	17 1046 0 is_stmt 1     ## /Library/Developer/CommandLineTools/usr/bin/../include/c++/v1/ostream:1046:0
	.cfi_startproc
## %bb.0:
	pushq	%rbp
	.cfi_def_cfa_offset 16
	.cfi_offset %rbp, -16
	movq	%rsp, %rbp
	.cfi_def_cfa_register %rbp
	subq	$32, %rsp
	movq	%rdi, -8(%rbp)
	movq	%rsi, -16(%rbp)
Ltmp49:
	.loc	17 1047 44 prologue_end ## /Library/Developer/CommandLineTools/usr/bin/../include/c++/v1/ostream:1047:44
	movq	-8(%rbp), %rdi
	.loc	17 1047 50 is_stmt 0    ## /Library/Developer/CommandLineTools/usr/bin/../include/c++/v1/ostream:1047:50
	movq	-16(%rbp), %rax
	movq	%rdi, -24(%rbp)         ## 8-byte Spill
	.loc	17 1047 56              ## /Library/Developer/CommandLineTools/usr/bin/../include/c++/v1/ostream:1047:56
	movq	%rax, %rdi
	callq	__ZNKSt3__112basic_stringIcNS_11char_traitsIcEENS_9allocatorIcEEE4dataEv
	.loc	17 1047 64              ## /Library/Developer/CommandLineTools/usr/bin/../include/c++/v1/ostream:1047:64
	movq	-16(%rbp), %rdi
	movq	%rax, -32(%rbp)         ## 8-byte Spill
	.loc	17 1047 70              ## /Library/Developer/CommandLineTools/usr/bin/../include/c++/v1/ostream:1047:70
	callq	__ZNKSt3__112basic_stringIcNS_11char_traitsIcEENS_9allocatorIcEEE4sizeEv
	movq	-24(%rbp), %rdi         ## 8-byte Reload
	movq	-32(%rbp), %rsi         ## 8-byte Reload
	.loc	17 1047 12              ## /Library/Developer/CommandLineTools/usr/bin/../include/c++/v1/ostream:1047:12
	movq	%rax, %rdx
	callq	__ZNSt3__124__put_character_sequenceIcNS_11char_traitsIcEEEERNS_13basic_ostreamIT_T0_EES7_PKS4_m
	.loc	17 1047 5               ## /Library/Developer/CommandLineTools/usr/bin/../include/c++/v1/ostream:1047:5
	addq	$32, %rsp
	popq	%rbp
	retq
Ltmp50:
Lfunc_end14:
	.cfi_endproc
                                        ## -- End function
	.globl	__ZNSt3__124__put_character_sequenceIcNS_11char_traitsIcEEEERNS_13basic_ostreamIT_T0_EES7_PKS4_m ## -- Begin function _ZNSt3__124__put_character_sequenceIcNS_11char_traitsIcEEEERNS_13basic_ostreamIT_T0_EES7_PKS4_m
	.weak_definition	__ZNSt3__124__put_character_sequenceIcNS_11char_traitsIcEEEERNS_13basic_ostreamIT_T0_EES7_PKS4_m
	.p2align	4, 0x90
__ZNSt3__124__put_character_sequenceIcNS_11char_traitsIcEEEERNS_13basic_ostreamIT_T0_EES7_PKS4_m: ## @_ZNSt3__124__put_character_sequenceIcNS_11char_traitsIcEEEERNS_13basic_ostreamIT_T0_EES7_PKS4_m
Lfunc_begin15:
	.loc	17 716 0 is_stmt 1      ## /Library/Developer/CommandLineTools/usr/bin/../include/c++/v1/ostream:716:0
	.cfi_startproc
	.cfi_personality 155, ___gxx_personality_v0
	.cfi_lsda 16, Lexception1
## %bb.0:
	pushq	%rbp
	.cfi_def_cfa_offset 16
	.cfi_offset %rbp, -16
	movq	%rsp, %rbp
	.cfi_def_cfa_register %rbp
	subq	$160, %rsp
	movq	%rdi, -8(%rbp)
	movq	%rsi, -16(%rbp)
	movq	%rdx, -24(%rbp)
Ltmp71:
	.loc	17 721 61 prologue_end  ## /Library/Developer/CommandLineTools/usr/bin/../include/c++/v1/ostream:721:61
	movq	-8(%rbp), %rsi
Ltmp51:
	leaq	-40(%rbp), %rdi
	.loc	17 721 57 is_stmt 0     ## /Library/Developer/CommandLineTools/usr/bin/../include/c++/v1/ostream:721:57
	callq	__ZNSt3__113basic_ostreamIcNS_11char_traitsIcEEE6sentryC1ERS3_
Ltmp52:
	jmp	LBB15_1
LBB15_1:
Ltmp54:
	.loc	17 0 57                 ## /Library/Developer/CommandLineTools/usr/bin/../include/c++/v1/ostream:0:57
	leaq	-40(%rbp), %rdi
Ltmp72:
	.loc	17 722 13 is_stmt 1     ## /Library/Developer/CommandLineTools/usr/bin/../include/c++/v1/ostream:722:13
	callq	__ZNKSt3__113basic_ostreamIcNS_11char_traitsIcEEE6sentrycvbEv
Ltmp55:
	movb	%al, -73(%rbp)          ## 1-byte Spill
	jmp	LBB15_2
Ltmp73:
LBB15_2:
	.loc	17 0 13 is_stmt 0       ## /Library/Developer/CommandLineTools/usr/bin/../include/c++/v1/ostream:0:13
	movb	-73(%rbp), %al          ## 1-byte Reload
	.loc	17 722 13               ## /Library/Developer/CommandLineTools/usr/bin/../include/c++/v1/ostream:722:13
	testb	$1, %al
	jne	LBB15_3
	jmp	LBB15_18
LBB15_3:
Ltmp74:
	.loc	17 725 38 is_stmt 1     ## /Library/Developer/CommandLineTools/usr/bin/../include/c++/v1/ostream:725:38
	movq	-8(%rbp), %rsi
	leaq	-72(%rbp), %rdi
	.loc	17 725 34 is_stmt 0     ## /Library/Developer/CommandLineTools/usr/bin/../include/c++/v1/ostream:725:34
	callq	__ZNSt3__119ostreambuf_iteratorIcNS_11char_traitsIcEEEC1ERNS_13basic_ostreamIcS2_EE
	.loc	17 726 34 is_stmt 1     ## /Library/Developer/CommandLineTools/usr/bin/../include/c++/v1/ostream:726:34
	movq	-16(%rbp), %rsi
	.loc	17 727 35               ## /Library/Developer/CommandLineTools/usr/bin/../include/c++/v1/ostream:727:35
	movq	-8(%rbp), %rax
	movq	(%rax), %rcx
	movq	-24(%rcx), %rcx
	addq	%rcx, %rax
Ltmp56:
	.loc	17 727 40 is_stmt 0     ## /Library/Developer/CommandLineTools/usr/bin/../include/c++/v1/ostream:727:40
	movq	%rax, %rdi
	movq	%rsi, -88(%rbp)         ## 8-byte Spill
	callq	__ZNKSt3__18ios_base5flagsEv
Ltmp57:
	movl	%eax, -92(%rbp)         ## 4-byte Spill
	jmp	LBB15_4
LBB15_4:
	.loc	17 0 40                 ## /Library/Developer/CommandLineTools/usr/bin/../include/c++/v1/ostream:0:40
	movl	-92(%rbp), %eax         ## 4-byte Reload
	.loc	17 727 48               ## /Library/Developer/CommandLineTools/usr/bin/../include/c++/v1/ostream:727:48
	andl	$176, %eax
	.loc	17 727 73               ## /Library/Developer/CommandLineTools/usr/bin/../include/c++/v1/ostream:727:73
	cmpl	$32, %eax
	.loc	17 727 34               ## /Library/Developer/CommandLineTools/usr/bin/../include/c++/v1/ostream:727:34
	jne	LBB15_6
## %bb.5:
	.loc	17 728 38 is_stmt 1     ## /Library/Developer/CommandLineTools/usr/bin/../include/c++/v1/ostream:728:38
	movq	-16(%rbp), %rax
	.loc	17 728 44 is_stmt 0     ## /Library/Developer/CommandLineTools/usr/bin/../include/c++/v1/ostream:728:44
	addq	-24(%rbp), %rax
	movq	%rax, -104(%rbp)        ## 8-byte Spill
	.loc	17 727 34 is_stmt 1     ## /Library/Developer/CommandLineTools/usr/bin/../include/c++/v1/ostream:727:34
	jmp	LBB15_7
LBB15_6:
	.loc	17 729 38               ## /Library/Developer/CommandLineTools/usr/bin/../include/c++/v1/ostream:729:38
	movq	-16(%rbp), %rax
	movq	%rax, -104(%rbp)        ## 8-byte Spill
LBB15_7:
	.loc	17 0 38 is_stmt 0       ## /Library/Developer/CommandLineTools/usr/bin/../include/c++/v1/ostream:0:38
	movq	-104(%rbp), %rax        ## 8-byte Reload
	.loc	17 730 34 is_stmt 1     ## /Library/Developer/CommandLineTools/usr/bin/../include/c++/v1/ostream:730:34
	movq	-16(%rbp), %rcx
	.loc	17 730 42 is_stmt 0     ## /Library/Developer/CommandLineTools/usr/bin/../include/c++/v1/ostream:730:42
	movq	-24(%rbp), %rdx
	.loc	17 730 40               ## /Library/Developer/CommandLineTools/usr/bin/../include/c++/v1/ostream:730:40
	addq	%rdx, %rcx
	.loc	17 731 34 is_stmt 1     ## /Library/Developer/CommandLineTools/usr/bin/../include/c++/v1/ostream:731:34
	movq	-8(%rbp), %rdx
	movq	(%rdx), %rsi
	movq	-24(%rsi), %rsi
	addq	%rsi, %rdx
Ltmp58:
	.loc	17 732 39               ## /Library/Developer/CommandLineTools/usr/bin/../include/c++/v1/ostream:732:39
	movq	%rdx, %rdi
	movq	%rax, -112(%rbp)        ## 8-byte Spill
	movq	%rcx, -120(%rbp)        ## 8-byte Spill
	movq	%rdx, -128(%rbp)        ## 8-byte Spill
	callq	__ZNKSt3__19basic_iosIcNS_11char_traitsIcEEE4fillEv
Ltmp59:
	movb	%al, -129(%rbp)         ## 1-byte Spill
	jmp	LBB15_8
LBB15_8:
	.loc	17 725 17               ## /Library/Developer/CommandLineTools/usr/bin/../include/c++/v1/ostream:725:17
	movq	-72(%rbp), %rdi
Ltmp60:
	movb	-129(%rbp), %al         ## 1-byte Reload
	movsbl	%al, %r9d
	movq	-88(%rbp), %rsi         ## 8-byte Reload
	movq	-112(%rbp), %rdx        ## 8-byte Reload
	movq	-120(%rbp), %rcx        ## 8-byte Reload
	movq	-128(%rbp), %r8         ## 8-byte Reload
	callq	__ZNSt3__116__pad_and_outputIcNS_11char_traitsIcEEEENS_19ostreambuf_iteratorIT_T0_EES6_PKS4_S8_S8_RNS_8ios_baseES4_
Ltmp61:
	movq	%rax, -144(%rbp)        ## 8-byte Spill
	jmp	LBB15_9
LBB15_9:
	.loc	17 0 17 is_stmt 0       ## /Library/Developer/CommandLineTools/usr/bin/../include/c++/v1/ostream:0:17
	movq	-144(%rbp), %rax        ## 8-byte Reload
	.loc	17 725 17               ## /Library/Developer/CommandLineTools/usr/bin/../include/c++/v1/ostream:725:17
	movq	%rax, -64(%rbp)
	.loc	17 732 47 is_stmt 1     ## /Library/Developer/CommandLineTools/usr/bin/../include/c++/v1/ostream:732:47
	leaq	-64(%rbp), %rdi
	callq	__ZNKSt3__119ostreambuf_iteratorIcNS_11char_traitsIcEEE6failedEv
Ltmp75:
	.loc	17 725 17               ## /Library/Developer/CommandLineTools/usr/bin/../include/c++/v1/ostream:725:17
	testb	$1, %al
	jne	LBB15_10
	jmp	LBB15_17
LBB15_10:
Ltmp76:
	.loc	17 733 17               ## /Library/Developer/CommandLineTools/usr/bin/../include/c++/v1/ostream:733:17
	movq	-8(%rbp), %rax
	movq	(%rax), %rcx
	movq	-24(%rcx), %rcx
	addq	%rcx, %rax
Ltmp62:
	movl	$5, %esi
	.loc	17 733 22 is_stmt 0     ## /Library/Developer/CommandLineTools/usr/bin/../include/c++/v1/ostream:733:22
	movq	%rax, %rdi
	callq	__ZNSt3__19basic_iosIcNS_11char_traitsIcEEE8setstateEj
Ltmp63:
	jmp	LBB15_11
LBB15_11:
	.loc	17 733 17               ## /Library/Developer/CommandLineTools/usr/bin/../include/c++/v1/ostream:733:17
	jmp	LBB15_17
Ltmp77:
LBB15_12:
Ltmp53:
                                        ## kill: def $edx killed $edx killed $rdx
	.loc	17 743 1 is_stmt 1      ## /Library/Developer/CommandLineTools/usr/bin/../include/c++/v1/ostream:743:1
	movq	%rax, -48(%rbp)
	movl	%edx, -52(%rbp)
	jmp	LBB15_14
LBB15_13:
Ltmp64:
                                        ## kill: def $edx killed $edx killed $rdx
Ltmp78:
	.loc	17 743 1 is_stmt 0      ## /Library/Developer/CommandLineTools/usr/bin/../include/c++/v1/ostream:743:1
	movq	%rax, -48(%rbp)
	movl	%edx, -52(%rbp)
Ltmp79:
	.loc	17 736 5 is_stmt 1      ## /Library/Developer/CommandLineTools/usr/bin/../include/c++/v1/ostream:736:5
	leaq	-40(%rbp), %rdi
	callq	__ZNSt3__113basic_ostreamIcNS_11char_traitsIcEEE6sentryD1Ev
LBB15_14:
Ltmp80:
	.loc	17 736 5 is_stmt 0      ## /Library/Developer/CommandLineTools/usr/bin/../include/c++/v1/ostream:736:5
	movq	-48(%rbp), %rdi
	callq	___cxa_begin_catch
Ltmp81:
	.loc	17 739 9 is_stmt 1      ## /Library/Developer/CommandLineTools/usr/bin/../include/c++/v1/ostream:739:9
	movq	-8(%rbp), %rcx
	movq	(%rcx), %rdx
	movq	-24(%rdx), %rdx
	addq	%rdx, %rcx
Ltmp65:
	.loc	17 739 14 is_stmt 0     ## /Library/Developer/CommandLineTools/usr/bin/../include/c++/v1/ostream:739:14
	movq	%rcx, %rdi
	movq	%rax, -152(%rbp)        ## 8-byte Spill
	callq	__ZNSt3__18ios_base33__set_badbit_and_consider_rethrowEv
Ltmp66:
	jmp	LBB15_15
LBB15_15:
	.loc	17 740 5 is_stmt 1      ## /Library/Developer/CommandLineTools/usr/bin/../include/c++/v1/ostream:740:5
	callq	___cxa_end_catch
Ltmp82:
LBB15_16:
	.loc	17 742 12               ## /Library/Developer/CommandLineTools/usr/bin/../include/c++/v1/ostream:742:12
	movq	-8(%rbp), %rax
	.loc	17 742 5 is_stmt 0      ## /Library/Developer/CommandLineTools/usr/bin/../include/c++/v1/ostream:742:5
	addq	$160, %rsp
	popq	%rbp
	retq
LBB15_17:
Ltmp83:
	.loc	17 734 9 is_stmt 1      ## /Library/Developer/CommandLineTools/usr/bin/../include/c++/v1/ostream:734:9
	jmp	LBB15_18
Ltmp84:
LBB15_18:
	.loc	17 736 5                ## /Library/Developer/CommandLineTools/usr/bin/../include/c++/v1/ostream:736:5
	leaq	-40(%rbp), %rdi
	callq	__ZNSt3__113basic_ostreamIcNS_11char_traitsIcEEE6sentryD1Ev
Ltmp85:
	.loc	17 736 5 is_stmt 0      ## /Library/Developer/CommandLineTools/usr/bin/../include/c++/v1/ostream:736:5
	jmp	LBB15_16
Ltmp86:
LBB15_19:
Ltmp67:
                                        ## kill: def $edx killed $edx killed $rdx
	.loc	17 743 1 is_stmt 1      ## /Library/Developer/CommandLineTools/usr/bin/../include/c++/v1/ostream:743:1
	movq	%rax, -48(%rbp)
	movl	%edx, -52(%rbp)
Ltmp68:
	.loc	17 740 5                ## /Library/Developer/CommandLineTools/usr/bin/../include/c++/v1/ostream:740:5
	callq	___cxa_end_catch
Ltmp69:
	jmp	LBB15_20
LBB15_20:
	jmp	LBB15_21
LBB15_21:
	movq	-48(%rbp), %rdi
	callq	__Unwind_Resume
	ud2
LBB15_22:
Ltmp70:
	movq	%rax, %rdi
	movq	%rdx, -160(%rbp)        ## 8-byte Spill
	callq	___clang_call_terminate
Ltmp87:
Lfunc_end15:
	.cfi_endproc
	.section	__TEXT,__gcc_except_tab
	.p2align	2
GCC_except_table15:
Lexception1:
	.byte	255                     ## @LPStart Encoding = omit
	.byte	155                     ## @TType Encoding = indirect pcrel sdata4
	.uleb128 Lttbase0-Lttbaseref0
Lttbaseref0:
	.byte	1                       ## Call site Encoding = uleb128
	.uleb128 Lcst_end1-Lcst_begin1
Lcst_begin1:
	.uleb128 Ltmp51-Lfunc_begin15   ## >> Call Site 1 <<
	.uleb128 Ltmp52-Ltmp51          ##   Call between Ltmp51 and Ltmp52
	.uleb128 Ltmp53-Lfunc_begin15   ##     jumps to Ltmp53
	.byte	1                       ##   On action: 1
	.uleb128 Ltmp54-Lfunc_begin15   ## >> Call Site 2 <<
	.uleb128 Ltmp63-Ltmp54          ##   Call between Ltmp54 and Ltmp63
	.uleb128 Ltmp64-Lfunc_begin15   ##     jumps to Ltmp64
	.byte	1                       ##   On action: 1
	.uleb128 Ltmp63-Lfunc_begin15   ## >> Call Site 3 <<
	.uleb128 Ltmp65-Ltmp63          ##   Call between Ltmp63 and Ltmp65
	.byte	0                       ##     has no landing pad
	.byte	0                       ##   On action: cleanup
	.uleb128 Ltmp65-Lfunc_begin15   ## >> Call Site 4 <<
	.uleb128 Ltmp66-Ltmp65          ##   Call between Ltmp65 and Ltmp66
	.uleb128 Ltmp67-Lfunc_begin15   ##     jumps to Ltmp67
	.byte	0                       ##   On action: cleanup
	.uleb128 Ltmp66-Lfunc_begin15   ## >> Call Site 5 <<
	.uleb128 Ltmp68-Ltmp66          ##   Call between Ltmp66 and Ltmp68
	.byte	0                       ##     has no landing pad
	.byte	0                       ##   On action: cleanup
	.uleb128 Ltmp68-Lfunc_begin15   ## >> Call Site 6 <<
	.uleb128 Ltmp69-Ltmp68          ##   Call between Ltmp68 and Ltmp69
	.uleb128 Ltmp70-Lfunc_begin15   ##     jumps to Ltmp70
	.byte	1                       ##   On action: 1
	.uleb128 Ltmp69-Lfunc_begin15   ## >> Call Site 7 <<
	.uleb128 Lfunc_end15-Ltmp69     ##   Call between Ltmp69 and Lfunc_end15
	.byte	0                       ##     has no landing pad
	.byte	0                       ##   On action: cleanup
Lcst_end1:
	.byte	1                       ## >> Action Record 1 <<
                                        ##   Catch TypeInfo 1
	.byte	0                       ##   No further actions
	.p2align	2
                                        ## >> Catch TypeInfos <<
	.long	0                       ## TypeInfo 1
Lttbase0:
	.p2align	2
                                        ## -- End function
	.section	__TEXT,__text,regular,pure_instructions
	.p2align	4, 0x90         ## -- Begin function _ZNKSt3__112basic_stringIcNS_11char_traitsIcEENS_9allocatorIcEEE4dataEv
__ZNKSt3__112basic_stringIcNS_11char_traitsIcEENS_9allocatorIcEEE4dataEv: ## @_ZNKSt3__112basic_stringIcNS_11char_traitsIcEENS_9allocatorIcEEE4dataEv
Lfunc_begin16:
	.loc	6 1242 0                ## /Library/Developer/CommandLineTools/usr/bin/../include/c++/v1/string:1242:0
	.cfi_startproc
## %bb.0:
	pushq	%rbp
	.cfi_def_cfa_offset 16
	.cfi_offset %rbp, -16
	movq	%rsp, %rbp
	.cfi_def_cfa_register %rbp
	subq	$16, %rsp
	movq	%rdi, -8(%rbp)
	movq	-8(%rbp), %rdi
Ltmp88:
	.loc	6 1242 79 prologue_end  ## /Library/Developer/CommandLineTools/usr/bin/../include/c++/v1/string:1242:79
	callq	__ZNKSt3__112basic_stringIcNS_11char_traitsIcEENS_9allocatorIcEEE13__get_pointerEv
	.loc	6 1242 55 is_stmt 0     ## /Library/Developer/CommandLineTools/usr/bin/../include/c++/v1/string:1242:55
	movq	%rax, %rdi
	callq	__ZNSt3__1L16__to_raw_pointerIKcEEPT_S3_
	.loc	6 1242 48               ## /Library/Developer/CommandLineTools/usr/bin/../include/c++/v1/string:1242:48
	addq	$16, %rsp
	popq	%rbp
	retq
Ltmp89:
Lfunc_end16:
	.cfi_endproc
                                        ## -- End function
	.p2align	4, 0x90         ## -- Begin function _ZNKSt3__112basic_stringIcNS_11char_traitsIcEENS_9allocatorIcEEE4sizeEv
__ZNKSt3__112basic_stringIcNS_11char_traitsIcEENS_9allocatorIcEEE4sizeEv: ## @_ZNKSt3__112basic_stringIcNS_11char_traitsIcEENS_9allocatorIcEEE4sizeEv
Lfunc_begin17:
	.loc	6 947 0 is_stmt 1       ## /Library/Developer/CommandLineTools/usr/bin/../include/c++/v1/string:947:0
	.cfi_startproc
## %bb.0:
	pushq	%rbp
	.cfi_def_cfa_offset 16
	.cfi_offset %rbp, -16
	movq	%rsp, %rbp
	.cfi_def_cfa_register %rbp
	subq	$32, %rsp
	movq	%rdi, -8(%rbp)
	movq	-8(%rbp), %rax
Ltmp90:
	.loc	6 947 17 prologue_end   ## /Library/Developer/CommandLineTools/usr/bin/../include/c++/v1/string:947:17
	movq	%rax, %rdi
	movq	%rax, -16(%rbp)         ## 8-byte Spill
	callq	__ZNKSt3__112basic_stringIcNS_11char_traitsIcEENS_9allocatorIcEEE9__is_longEv
	testb	$1, %al
	jne	LBB17_1
	jmp	LBB17_2
LBB17_1:
	.loc	6 0 17 is_stmt 0        ## /Library/Developer/CommandLineTools/usr/bin/../include/c++/v1/string:0:17
	movq	-16(%rbp), %rdi         ## 8-byte Reload
	.loc	6 947 31                ## /Library/Developer/CommandLineTools/usr/bin/../include/c++/v1/string:947:31
	callq	__ZNKSt3__112basic_stringIcNS_11char_traitsIcEENS_9allocatorIcEEE15__get_long_sizeEv
	movq	%rax, -24(%rbp)         ## 8-byte Spill
	.loc	6 947 17                ## /Library/Developer/CommandLineTools/usr/bin/../include/c++/v1/string:947:17
	jmp	LBB17_3
LBB17_2:
	.loc	6 0 17                  ## /Library/Developer/CommandLineTools/usr/bin/../include/c++/v1/string:0:17
	movq	-16(%rbp), %rdi         ## 8-byte Reload
	.loc	6 947 51                ## /Library/Developer/CommandLineTools/usr/bin/../include/c++/v1/string:947:51
	callq	__ZNKSt3__112basic_stringIcNS_11char_traitsIcEENS_9allocatorIcEEE16__get_short_sizeEv
	movq	%rax, -24(%rbp)         ## 8-byte Spill
LBB17_3:
	.loc	6 0 51                  ## /Library/Developer/CommandLineTools/usr/bin/../include/c++/v1/string:0:51
	movq	-24(%rbp), %rax         ## 8-byte Reload
	.loc	6 947 10                ## /Library/Developer/CommandLineTools/usr/bin/../include/c++/v1/string:947:10
	addq	$32, %rsp
	popq	%rbp
	retq
Ltmp91:
Lfunc_end17:
	.cfi_endproc
                                        ## -- End function
	.p2align	4, 0x90         ## -- Begin function _ZNKSt3__113basic_ostreamIcNS_11char_traitsIcEEE6sentrycvbEv
__ZNKSt3__113basic_ostreamIcNS_11char_traitsIcEEE6sentrycvbEv: ## @_ZNKSt3__113basic_ostreamIcNS_11char_traitsIcEEE6sentrycvbEv
Lfunc_begin18:
	.loc	17 254 0 is_stmt 1      ## /Library/Developer/CommandLineTools/usr/bin/../include/c++/v1/ostream:254:0
	.cfi_startproc
## %bb.0:
	pushq	%rbp
	.cfi_def_cfa_offset 16
	.cfi_offset %rbp, -16
	movq	%rsp, %rbp
	.cfi_def_cfa_register %rbp
	movq	%rdi, -8(%rbp)
	movq	-8(%rbp), %rax
Ltmp92:
	.loc	17 254 39 prologue_end  ## /Library/Developer/CommandLineTools/usr/bin/../include/c++/v1/ostream:254:39
	movb	(%rax), %cl
	.loc	17 254 32 is_stmt 0     ## /Library/Developer/CommandLineTools/usr/bin/../include/c++/v1/ostream:254:32
	andb	$1, %cl
	movzbl	%cl, %eax
	popq	%rbp
	retq
Ltmp93:
Lfunc_end18:
	.cfi_endproc
                                        ## -- End function
	.private_extern	__ZNSt3__116__pad_and_outputIcNS_11char_traitsIcEEEENS_19ostreambuf_iteratorIT_T0_EES6_PKS4_S8_S8_RNS_8ios_baseES4_ ## -- Begin function _ZNSt3__116__pad_and_outputIcNS_11char_traitsIcEEEENS_19ostreambuf_iteratorIT_T0_EES6_PKS4_S8_S8_RNS_8ios_baseES4_
	.globl	__ZNSt3__116__pad_and_outputIcNS_11char_traitsIcEEEENS_19ostreambuf_iteratorIT_T0_EES6_PKS4_S8_S8_RNS_8ios_baseES4_
	.weak_definition	__ZNSt3__116__pad_and_outputIcNS_11char_traitsIcEEEENS_19ostreambuf_iteratorIT_T0_EES6_PKS4_S8_S8_RNS_8ios_baseES4_
	.p2align	4, 0x90
__ZNSt3__116__pad_and_outputIcNS_11char_traitsIcEEEENS_19ostreambuf_iteratorIT_T0_EES6_PKS4_S8_S8_RNS_8ios_baseES4_: ## @_ZNSt3__116__pad_and_outputIcNS_11char_traitsIcEEEENS_19ostreambuf_iteratorIT_T0_EES6_PKS4_S8_S8_RNS_8ios_baseES4_
Lfunc_begin19:
	.file	62 "/Library/Developer/CommandLineTools/usr/bin/../include/c++/v1" "locale"
	.loc	62 1381 0 is_stmt 1     ## /Library/Developer/CommandLineTools/usr/bin/../include/c++/v1/locale:1381:0
	.cfi_startproc
	.cfi_personality 155, ___gxx_personality_v0
	.cfi_lsda 16, Lexception2
## %bb.0:
	pushq	%rbp
	.cfi_def_cfa_offset 16
	.cfi_offset %rbp, -16
	movq	%rsp, %rbp
	.cfi_def_cfa_register %rbp
	subq	$144, %rsp
                                        ## kill: def $r9b killed $r9b killed $r9d
	movq	%rdi, -16(%rbp)
	movq	%rsi, -24(%rbp)
	movq	%rdx, -32(%rbp)
	movq	%rcx, -40(%rbp)
	movq	%r8, -48(%rbp)
	movb	%r9b, -49(%rbp)
Ltmp97:
	.loc	62 1382 21 prologue_end ## /Library/Developer/CommandLineTools/usr/bin/../include/c++/v1/locale:1382:21
	cmpq	$0, -16(%rbp)
Ltmp98:
	.loc	62 1382 9 is_stmt 0     ## /Library/Developer/CommandLineTools/usr/bin/../include/c++/v1/locale:1382:9
	jne	LBB19_2
## %bb.1:
Ltmp99:
	.loc	62 1383 16 is_stmt 1    ## /Library/Developer/CommandLineTools/usr/bin/../include/c++/v1/locale:1383:16
	movq	-16(%rbp), %rax
	movq	%rax, -8(%rbp)
	.loc	62 1383 9 is_stmt 0     ## /Library/Developer/CommandLineTools/usr/bin/../include/c++/v1/locale:1383:9
	jmp	LBB19_22
Ltmp100:
LBB19_2:
	.loc	62 1384 23 is_stmt 1    ## /Library/Developer/CommandLineTools/usr/bin/../include/c++/v1/locale:1384:23
	movq	-40(%rbp), %rax
	.loc	62 1384 30 is_stmt 0    ## /Library/Developer/CommandLineTools/usr/bin/../include/c++/v1/locale:1384:30
	movq	-24(%rbp), %rcx
	.loc	62 1384 28              ## /Library/Developer/CommandLineTools/usr/bin/../include/c++/v1/locale:1384:28
	subq	%rcx, %rax
	.loc	62 1384 16              ## /Library/Developer/CommandLineTools/usr/bin/../include/c++/v1/locale:1384:16
	movq	%rax, -64(%rbp)
	.loc	62 1385 23 is_stmt 1    ## /Library/Developer/CommandLineTools/usr/bin/../include/c++/v1/locale:1385:23
	movq	-48(%rbp), %rdi
	.loc	62 1385 29 is_stmt 0    ## /Library/Developer/CommandLineTools/usr/bin/../include/c++/v1/locale:1385:29
	callq	__ZNKSt3__18ios_base5widthEv
	.loc	62 1385 16              ## /Library/Developer/CommandLineTools/usr/bin/../include/c++/v1/locale:1385:16
	movq	%rax, -72(%rbp)
Ltmp101:
	.loc	62 1386 9 is_stmt 1     ## /Library/Developer/CommandLineTools/usr/bin/../include/c++/v1/locale:1386:9
	movq	-72(%rbp), %rax
	.loc	62 1386 14 is_stmt 0    ## /Library/Developer/CommandLineTools/usr/bin/../include/c++/v1/locale:1386:14
	cmpq	-64(%rbp), %rax
Ltmp102:
	.loc	62 1386 9               ## /Library/Developer/CommandLineTools/usr/bin/../include/c++/v1/locale:1386:9
	jle	LBB19_4
## %bb.3:
Ltmp103:
	.loc	62 1387 17 is_stmt 1    ## /Library/Developer/CommandLineTools/usr/bin/../include/c++/v1/locale:1387:17
	movq	-64(%rbp), %rax
	.loc	62 1387 14 is_stmt 0    ## /Library/Developer/CommandLineTools/usr/bin/../include/c++/v1/locale:1387:14
	movq	-72(%rbp), %rcx
	subq	%rax, %rcx
	movq	%rcx, -72(%rbp)
	.loc	62 1387 9               ## /Library/Developer/CommandLineTools/usr/bin/../include/c++/v1/locale:1387:9
	jmp	LBB19_5
LBB19_4:
	.loc	62 1389 14 is_stmt 1    ## /Library/Developer/CommandLineTools/usr/bin/../include/c++/v1/locale:1389:14
	movq	$0, -72(%rbp)
Ltmp104:
LBB19_5:
	.loc	62 1390 23              ## /Library/Developer/CommandLineTools/usr/bin/../include/c++/v1/locale:1390:23
	movq	-32(%rbp), %rax
	.loc	62 1390 30 is_stmt 0    ## /Library/Developer/CommandLineTools/usr/bin/../include/c++/v1/locale:1390:30
	movq	-24(%rbp), %rcx
	.loc	62 1390 28              ## /Library/Developer/CommandLineTools/usr/bin/../include/c++/v1/locale:1390:28
	subq	%rcx, %rax
	.loc	62 1390 16              ## /Library/Developer/CommandLineTools/usr/bin/../include/c++/v1/locale:1390:16
	movq	%rax, -80(%rbp)
Ltmp105:
	.loc	62 1391 14 is_stmt 1    ## /Library/Developer/CommandLineTools/usr/bin/../include/c++/v1/locale:1391:14
	cmpq	$0, -80(%rbp)
Ltmp106:
	.loc	62 1391 9 is_stmt 0     ## /Library/Developer/CommandLineTools/usr/bin/../include/c++/v1/locale:1391:9
	jle	LBB19_9
## %bb.6:
Ltmp107:
	.loc	62 1393 17 is_stmt 1    ## /Library/Developer/CommandLineTools/usr/bin/../include/c++/v1/locale:1393:17
	movq	-16(%rbp), %rdi
	.loc	62 1393 32 is_stmt 0    ## /Library/Developer/CommandLineTools/usr/bin/../include/c++/v1/locale:1393:32
	movq	-24(%rbp), %rsi
	.loc	62 1393 38              ## /Library/Developer/CommandLineTools/usr/bin/../include/c++/v1/locale:1393:38
	movq	-80(%rbp), %rdx
	.loc	62 1393 26              ## /Library/Developer/CommandLineTools/usr/bin/../include/c++/v1/locale:1393:26
	callq	__ZNSt3__115basic_streambufIcNS_11char_traitsIcEEE5sputnEPKcl
	.loc	62 1393 44              ## /Library/Developer/CommandLineTools/usr/bin/../include/c++/v1/locale:1393:44
	cmpq	-80(%rbp), %rax
Ltmp108:
	.loc	62 1393 13              ## /Library/Developer/CommandLineTools/usr/bin/../include/c++/v1/locale:1393:13
	je	LBB19_8
## %bb.7:
Ltmp109:
	.loc	62 1395 25 is_stmt 1    ## /Library/Developer/CommandLineTools/usr/bin/../include/c++/v1/locale:1395:25
	movq	$0, -16(%rbp)
	.loc	62 1396 20              ## /Library/Developer/CommandLineTools/usr/bin/../include/c++/v1/locale:1396:20
	movq	-16(%rbp), %rax
	movq	%rax, -8(%rbp)
	.loc	62 1396 13 is_stmt 0    ## /Library/Developer/CommandLineTools/usr/bin/../include/c++/v1/locale:1396:13
	jmp	LBB19_22
Ltmp110:
LBB19_8:
	.loc	62 1398 5 is_stmt 1     ## /Library/Developer/CommandLineTools/usr/bin/../include/c++/v1/locale:1398:5
	jmp	LBB19_9
Ltmp111:
LBB19_9:
	.loc	62 1399 14              ## /Library/Developer/CommandLineTools/usr/bin/../include/c++/v1/locale:1399:14
	cmpq	$0, -72(%rbp)
Ltmp112:
	.loc	62 1399 9 is_stmt 0     ## /Library/Developer/CommandLineTools/usr/bin/../include/c++/v1/locale:1399:9
	jle	LBB19_17
## %bb.10:
Ltmp113:
	.loc	62 1401 44 is_stmt 1    ## /Library/Developer/CommandLineTools/usr/bin/../include/c++/v1/locale:1401:44
	movq	-72(%rbp), %rsi
	.loc	62 1401 50 is_stmt 0    ## /Library/Developer/CommandLineTools/usr/bin/../include/c++/v1/locale:1401:50
	movsbl	-49(%rbp), %edx
	leaq	-104(%rbp), %rax
	.loc	62 1401 39              ## /Library/Developer/CommandLineTools/usr/bin/../include/c++/v1/locale:1401:39
	movq	%rax, %rdi
	movq	%rax, -128(%rbp)        ## 8-byte Spill
	callq	__ZNSt3__112basic_stringIcNS_11char_traitsIcEENS_9allocatorIcEEEC1Emc
Ltmp114:
	.loc	62 1402 17 is_stmt 1    ## /Library/Developer/CommandLineTools/usr/bin/../include/c++/v1/locale:1402:17
	movq	-16(%rbp), %rdi
	movq	-128(%rbp), %rax        ## 8-byte Reload
	movq	%rdi, -136(%rbp)        ## 8-byte Spill
	.loc	62 1402 37 is_stmt 0    ## /Library/Developer/CommandLineTools/usr/bin/../include/c++/v1/locale:1402:37
	movq	%rax, %rdi
	callq	__ZNKSt3__112basic_stringIcNS_11char_traitsIcEENS_9allocatorIcEEE4dataEv
	.loc	62 1402 45              ## /Library/Developer/CommandLineTools/usr/bin/../include/c++/v1/locale:1402:45
	movq	-72(%rbp), %rdx
Ltmp94:
	movq	-136(%rbp), %rdi        ## 8-byte Reload
	.loc	62 1402 26              ## /Library/Developer/CommandLineTools/usr/bin/../include/c++/v1/locale:1402:26
	movq	%rax, %rsi
	callq	__ZNSt3__115basic_streambufIcNS_11char_traitsIcEEE5sputnEPKcl
Ltmp95:
	movq	%rax, -144(%rbp)        ## 8-byte Spill
	jmp	LBB19_11
LBB19_11:
	.loc	62 0 26                 ## /Library/Developer/CommandLineTools/usr/bin/../include/c++/v1/locale:0:26
	movq	-144(%rbp), %rax        ## 8-byte Reload
	.loc	62 1402 51              ## /Library/Developer/CommandLineTools/usr/bin/../include/c++/v1/locale:1402:51
	cmpq	-72(%rbp), %rax
Ltmp115:
	.loc	62 1402 13              ## /Library/Developer/CommandLineTools/usr/bin/../include/c++/v1/locale:1402:13
	je	LBB19_14
## %bb.12:
Ltmp116:
	.loc	62 1404 25 is_stmt 1    ## /Library/Developer/CommandLineTools/usr/bin/../include/c++/v1/locale:1404:25
	movq	$0, -16(%rbp)
	.loc	62 1405 20              ## /Library/Developer/CommandLineTools/usr/bin/../include/c++/v1/locale:1405:20
	movq	-16(%rbp), %rax
	movq	%rax, -8(%rbp)
	movl	$1, -120(%rbp)
	.loc	62 1405 13 is_stmt 0    ## /Library/Developer/CommandLineTools/usr/bin/../include/c++/v1/locale:1405:13
	jmp	LBB19_15
Ltmp117:
LBB19_13:
Ltmp96:
                                        ## kill: def $edx killed $edx killed $rdx
	.loc	62 1419 1 is_stmt 1     ## /Library/Developer/CommandLineTools/usr/bin/../include/c++/v1/locale:1419:1
	movq	%rax, -112(%rbp)
	movl	%edx, -116(%rbp)
Ltmp118:
	.loc	62 1407 5               ## /Library/Developer/CommandLineTools/usr/bin/../include/c++/v1/locale:1407:5
	leaq	-104(%rbp), %rdi
	callq	__ZNSt3__112basic_stringIcNS_11char_traitsIcEENS_9allocatorIcEEED1Ev
	jmp	LBB19_23
LBB19_14:
	movl	$0, -120(%rbp)
LBB19_15:
	.loc	62 0 5 is_stmt 0        ## /Library/Developer/CommandLineTools/usr/bin/../include/c++/v1/locale:0:5
	leaq	-104(%rbp), %rdi
	.loc	62 1407 5               ## /Library/Developer/CommandLineTools/usr/bin/../include/c++/v1/locale:1407:5
	callq	__ZNSt3__112basic_stringIcNS_11char_traitsIcEENS_9allocatorIcEEED1Ev
	movl	-120(%rbp), %eax
	testl	%eax, %eax
	je	LBB19_16
	jmp	LBB19_25
LBB19_25:
	.loc	62 0 5                  ## /Library/Developer/CommandLineTools/usr/bin/../include/c++/v1/locale:0:5
	jmp	LBB19_22
LBB19_16:
Ltmp119:
	.loc	62 1407 5               ## /Library/Developer/CommandLineTools/usr/bin/../include/c++/v1/locale:1407:5
	jmp	LBB19_17
Ltmp120:
LBB19_17:
	.loc	62 1408 12 is_stmt 1    ## /Library/Developer/CommandLineTools/usr/bin/../include/c++/v1/locale:1408:12
	movq	-40(%rbp), %rax
	.loc	62 1408 19 is_stmt 0    ## /Library/Developer/CommandLineTools/usr/bin/../include/c++/v1/locale:1408:19
	movq	-32(%rbp), %rcx
	.loc	62 1408 17              ## /Library/Developer/CommandLineTools/usr/bin/../include/c++/v1/locale:1408:17
	subq	%rcx, %rax
	.loc	62 1408 10              ## /Library/Developer/CommandLineTools/usr/bin/../include/c++/v1/locale:1408:10
	movq	%rax, -80(%rbp)
Ltmp121:
	.loc	62 1409 14 is_stmt 1    ## /Library/Developer/CommandLineTools/usr/bin/../include/c++/v1/locale:1409:14
	cmpq	$0, -80(%rbp)
Ltmp122:
	.loc	62 1409 9 is_stmt 0     ## /Library/Developer/CommandLineTools/usr/bin/../include/c++/v1/locale:1409:9
	jle	LBB19_21
## %bb.18:
Ltmp123:
	.loc	62 1411 17 is_stmt 1    ## /Library/Developer/CommandLineTools/usr/bin/../include/c++/v1/locale:1411:17
	movq	-16(%rbp), %rdi
	.loc	62 1411 32 is_stmt 0    ## /Library/Developer/CommandLineTools/usr/bin/../include/c++/v1/locale:1411:32
	movq	-32(%rbp), %rsi
	.loc	62 1411 38              ## /Library/Developer/CommandLineTools/usr/bin/../include/c++/v1/locale:1411:38
	movq	-80(%rbp), %rdx
	.loc	62 1411 26              ## /Library/Developer/CommandLineTools/usr/bin/../include/c++/v1/locale:1411:26
	callq	__ZNSt3__115basic_streambufIcNS_11char_traitsIcEEE5sputnEPKcl
	.loc	62 1411 44              ## /Library/Developer/CommandLineTools/usr/bin/../include/c++/v1/locale:1411:44
	cmpq	-80(%rbp), %rax
Ltmp124:
	.loc	62 1411 13              ## /Library/Developer/CommandLineTools/usr/bin/../include/c++/v1/locale:1411:13
	je	LBB19_20
## %bb.19:
Ltmp125:
	.loc	62 1413 25 is_stmt 1    ## /Library/Developer/CommandLineTools/usr/bin/../include/c++/v1/locale:1413:25
	movq	$0, -16(%rbp)
	.loc	62 1414 20              ## /Library/Developer/CommandLineTools/usr/bin/../include/c++/v1/locale:1414:20
	movq	-16(%rbp), %rax
	movq	%rax, -8(%rbp)
	.loc	62 1414 13 is_stmt 0    ## /Library/Developer/CommandLineTools/usr/bin/../include/c++/v1/locale:1414:13
	jmp	LBB19_22
Ltmp126:
LBB19_20:
	.loc	62 1416 5 is_stmt 1     ## /Library/Developer/CommandLineTools/usr/bin/../include/c++/v1/locale:1416:5
	jmp	LBB19_21
Ltmp127:
LBB19_21:
	.loc	62 0 5 is_stmt 0        ## /Library/Developer/CommandLineTools/usr/bin/../include/c++/v1/locale:0:5
	xorl	%eax, %eax
	movl	%eax, %esi
	.loc	62 1417 5 is_stmt 1     ## /Library/Developer/CommandLineTools/usr/bin/../include/c++/v1/locale:1417:5
	movq	-48(%rbp), %rdi
	.loc	62 1417 11 is_stmt 0    ## /Library/Developer/CommandLineTools/usr/bin/../include/c++/v1/locale:1417:11
	callq	__ZNSt3__18ios_base5widthEl
	.loc	62 1418 12 is_stmt 1    ## /Library/Developer/CommandLineTools/usr/bin/../include/c++/v1/locale:1418:12
	movq	-16(%rbp), %rcx
	movq	%rcx, -8(%rbp)
LBB19_22:
	.loc	62 1419 1               ## /Library/Developer/CommandLineTools/usr/bin/../include/c++/v1/locale:1419:1
	movq	-8(%rbp), %rax
	addq	$144, %rsp
	popq	%rbp
	retq
LBB19_23:
Ltmp128:
	.loc	62 1407 5               ## /Library/Developer/CommandLineTools/usr/bin/../include/c++/v1/locale:1407:5
	movq	-112(%rbp), %rdi
	callq	__Unwind_Resume
	ud2
Ltmp129:
## %bb.24:
	.loc	62 0 5 is_stmt 0        ## /Library/Developer/CommandLineTools/usr/bin/../include/c++/v1/locale:0:5
	ud2
Lfunc_end19:
	.cfi_endproc
	.section	__TEXT,__gcc_except_tab
	.p2align	2
GCC_except_table19:
Lexception2:
	.byte	255                     ## @LPStart Encoding = omit
	.byte	255                     ## @TType Encoding = omit
	.byte	1                       ## Call site Encoding = uleb128
	.uleb128 Lcst_end2-Lcst_begin2
Lcst_begin2:
	.uleb128 Lfunc_begin19-Lfunc_begin19 ## >> Call Site 1 <<
	.uleb128 Ltmp94-Lfunc_begin19   ##   Call between Lfunc_begin19 and Ltmp94
	.byte	0                       ##     has no landing pad
	.byte	0                       ##   On action: cleanup
	.uleb128 Ltmp94-Lfunc_begin19   ## >> Call Site 2 <<
	.uleb128 Ltmp95-Ltmp94          ##   Call between Ltmp94 and Ltmp95
	.uleb128 Ltmp96-Lfunc_begin19   ##     jumps to Ltmp96
	.byte	0                       ##   On action: cleanup
	.uleb128 Ltmp95-Lfunc_begin19   ## >> Call Site 3 <<
	.uleb128 Lfunc_end19-Ltmp95     ##   Call between Ltmp95 and Lfunc_end19
	.byte	0                       ##     has no landing pad
	.byte	0                       ##   On action: cleanup
Lcst_end2:
	.p2align	2
                                        ## -- End function
	.section	__TEXT,__text,regular,pure_instructions
	.p2align	4, 0x90         ## -- Begin function _ZNSt3__119ostreambuf_iteratorIcNS_11char_traitsIcEEEC1ERNS_13basic_ostreamIcS2_EE
__ZNSt3__119ostreambuf_iteratorIcNS_11char_traitsIcEEEC1ERNS_13basic_ostreamIcS2_EE: ## @_ZNSt3__119ostreambuf_iteratorIcNS_11char_traitsIcEEEC1ERNS_13basic_ostreamIcS2_EE
Lfunc_begin20:
	.loc	15 1079 0 is_stmt 1     ## /Library/Developer/CommandLineTools/usr/bin/../include/c++/v1/iterator:1079:0
	.cfi_startproc
## %bb.0:
	pushq	%rbp
	.cfi_def_cfa_offset 16
	.cfi_offset %rbp, -16
	movq	%rsp, %rbp
	.cfi_def_cfa_register %rbp
	subq	$16, %rsp
	movq	%rdi, -8(%rbp)
	movq	%rsi, -16(%rbp)
	movq	-8(%rbp), %rdi
Ltmp130:
	.loc	15 1079 32 prologue_end ## /Library/Developer/CommandLineTools/usr/bin/../include/c++/v1/iterator:1079:32
	movq	-16(%rbp), %rsi
	callq	__ZNSt3__119ostreambuf_iteratorIcNS_11char_traitsIcEEEC2ERNS_13basic_ostreamIcS2_EE
	.loc	15 1079 33 is_stmt 0    ## /Library/Developer/CommandLineTools/usr/bin/../include/c++/v1/iterator:1079:33
	addq	$16, %rsp
	popq	%rbp
	retq
Ltmp131:
Lfunc_end20:
	.cfi_endproc
                                        ## -- End function
	.p2align	4, 0x90         ## -- Begin function _ZNKSt3__18ios_base5flagsEv
__ZNKSt3__18ios_base5flagsEv:           ## @_ZNKSt3__18ios_base5flagsEv
Lfunc_begin21:
	.loc	1 459 0 is_stmt 1       ## /Library/Developer/CommandLineTools/usr/bin/../include/c++/v1/ios:459:0
	.cfi_startproc
## %bb.0:
	pushq	%rbp
	.cfi_def_cfa_offset 16
	.cfi_offset %rbp, -16
	movq	%rsp, %rbp
	.cfi_def_cfa_register %rbp
	movq	%rdi, -8(%rbp)
	movq	-8(%rbp), %rax
Ltmp132:
	.loc	1 460 12 prologue_end   ## /Library/Developer/CommandLineTools/usr/bin/../include/c++/v1/ios:460:12
	movl	8(%rax), %eax
	.loc	1 460 5 is_stmt 0       ## /Library/Developer/CommandLineTools/usr/bin/../include/c++/v1/ios:460:5
	popq	%rbp
	retq
Ltmp133:
Lfunc_end21:
	.cfi_endproc
                                        ## -- End function
	.p2align	4, 0x90         ## -- Begin function _ZNKSt3__19basic_iosIcNS_11char_traitsIcEEE4fillEv
__ZNKSt3__19basic_iosIcNS_11char_traitsIcEEE4fillEv: ## @_ZNKSt3__19basic_iosIcNS_11char_traitsIcEEE4fillEv
Lfunc_begin22:
	.loc	1 784 0 is_stmt 1       ## /Library/Developer/CommandLineTools/usr/bin/../include/c++/v1/ios:784:0
	.cfi_startproc
## %bb.0:
	pushq	%rbp
	.cfi_def_cfa_offset 16
	.cfi_offset %rbp, -16
	movq	%rsp, %rbp
	.cfi_def_cfa_register %rbp
	subq	$16, %rsp
	movq	%rdi, -8(%rbp)
	movq	-8(%rbp), %rax
	movq	%rax, -16(%rbp)         ## 8-byte Spill
Ltmp134:
	.loc	1 785 34 prologue_end   ## /Library/Developer/CommandLineTools/usr/bin/../include/c++/v1/ios:785:34
	callq	__ZNSt3__111char_traitsIcE3eofEv
	movq	-16(%rbp), %rcx         ## 8-byte Reload
	.loc	1 785 54 is_stmt 0      ## /Library/Developer/CommandLineTools/usr/bin/../include/c++/v1/ios:785:54
	movl	144(%rcx), %esi
	.loc	1 785 9                 ## /Library/Developer/CommandLineTools/usr/bin/../include/c++/v1/ios:785:9
	movl	%eax, %edi
	callq	__ZNSt3__111char_traitsIcE11eq_int_typeEii
Ltmp135:
	.loc	1 785 9                 ## /Library/Developer/CommandLineTools/usr/bin/../include/c++/v1/ios:785:9
	testb	$1, %al
	jne	LBB22_1
	jmp	LBB22_2
LBB22_1:
	.loc	1 0 9                   ## /Library/Developer/CommandLineTools/usr/bin/../include/c++/v1/ios:0:9
	movq	-16(%rbp), %rdi         ## 8-byte Reload
Ltmp136:
	.loc	1 786 19 is_stmt 1      ## /Library/Developer/CommandLineTools/usr/bin/../include/c++/v1/ios:786:19
	movl	$32, %esi
	callq	__ZNKSt3__19basic_iosIcNS_11char_traitsIcEEE5widenEc
	movsbl	%al, %ecx
	movq	-16(%rbp), %rdx         ## 8-byte Reload
	.loc	1 786 17 is_stmt 0      ## /Library/Developer/CommandLineTools/usr/bin/../include/c++/v1/ios:786:17
	movl	%ecx, 144(%rdx)
Ltmp137:
LBB22_2:
	.loc	1 0 17                  ## /Library/Developer/CommandLineTools/usr/bin/../include/c++/v1/ios:0:17
	movq	-16(%rbp), %rax         ## 8-byte Reload
	.loc	1 787 12 is_stmt 1      ## /Library/Developer/CommandLineTools/usr/bin/../include/c++/v1/ios:787:12
	movl	144(%rax), %ecx
                                        ## kill: def $cl killed $cl killed $ecx
	.loc	1 787 5 is_stmt 0       ## /Library/Developer/CommandLineTools/usr/bin/../include/c++/v1/ios:787:5
	movsbl	%cl, %edx
	movl	%edx, %eax
	addq	$16, %rsp
	popq	%rbp
	retq
Ltmp138:
Lfunc_end22:
	.cfi_endproc
                                        ## -- End function
	.p2align	4, 0x90         ## -- Begin function _ZNKSt3__119ostreambuf_iteratorIcNS_11char_traitsIcEEE6failedEv
__ZNKSt3__119ostreambuf_iteratorIcNS_11char_traitsIcEEE6failedEv: ## @_ZNKSt3__119ostreambuf_iteratorIcNS_11char_traitsIcEEE6failedEv
Lfunc_begin23:
	.loc	15 1091 0 is_stmt 1     ## /Library/Developer/CommandLineTools/usr/bin/../include/c++/v1/iterator:1091:0
	.cfi_startproc
## %bb.0:
	pushq	%rbp
	.cfi_def_cfa_offset 16
	.cfi_offset %rbp, -16
	movq	%rsp, %rbp
	.cfi_def_cfa_register %rbp
	movq	%rdi, -8(%rbp)
	movq	-8(%rbp), %rax
Ltmp139:
	.loc	15 1091 77 prologue_end ## /Library/Developer/CommandLineTools/usr/bin/../include/c++/v1/iterator:1091:77
	cmpq	$0, (%rax)
	sete	%cl
	.loc	15 1091 62 is_stmt 0    ## /Library/Developer/CommandLineTools/usr/bin/../include/c++/v1/iterator:1091:62
	andb	$1, %cl
	movzbl	%cl, %eax
	popq	%rbp
	retq
Ltmp140:
Lfunc_end23:
	.cfi_endproc
                                        ## -- End function
	.p2align	4, 0x90         ## -- Begin function _ZNSt3__19basic_iosIcNS_11char_traitsIcEEE8setstateEj
__ZNSt3__19basic_iosIcNS_11char_traitsIcEEE8setstateEj: ## @_ZNSt3__19basic_iosIcNS_11char_traitsIcEEE8setstateEj
Lfunc_begin24:
	.loc	1 632 0 is_stmt 1       ## /Library/Developer/CommandLineTools/usr/bin/../include/c++/v1/ios:632:0
	.cfi_startproc
## %bb.0:
	pushq	%rbp
	.cfi_def_cfa_offset 16
	.cfi_offset %rbp, -16
	movq	%rsp, %rbp
	.cfi_def_cfa_register %rbp
	subq	$16, %rsp
	movq	%rdi, -8(%rbp)
	movl	%esi, -12(%rbp)
	movq	-8(%rbp), %rax
Ltmp141:
	.loc	1 632 82 prologue_end   ## /Library/Developer/CommandLineTools/usr/bin/../include/c++/v1/ios:632:82
	movl	-12(%rbp), %esi
	.loc	1 632 73 is_stmt 0      ## /Library/Developer/CommandLineTools/usr/bin/../include/c++/v1/ios:632:73
	movq	%rax, %rdi
	callq	__ZNSt3__18ios_base8setstateEj
	.loc	1 632 91                ## /Library/Developer/CommandLineTools/usr/bin/../include/c++/v1/ios:632:91
	addq	$16, %rsp
	popq	%rbp
	retq
Ltmp142:
Lfunc_end24:
	.cfi_endproc
                                        ## -- End function
	.private_extern	___clang_call_terminate ## -- Begin function __clang_call_terminate
	.globl	___clang_call_terminate
	.weak_definition	___clang_call_terminate
	.p2align	4, 0x90
___clang_call_terminate:                ## @__clang_call_terminate
Lfunc_begin25:
	.cfi_startproc
## %bb.0:
	pushq	%rax
	.cfi_def_cfa_offset 16
	callq	___cxa_begin_catch
	movq	%rax, (%rsp)            ## 8-byte Spill
	callq	__ZSt9terminatev
Lfunc_end25:
	.cfi_endproc
                                        ## -- End function
	.p2align	4, 0x90         ## -- Begin function _ZNKSt3__18ios_base5widthEv
__ZNKSt3__18ios_base5widthEv:           ## @_ZNKSt3__18ios_base5widthEv
Lfunc_begin26:
	.loc	1 521 0 is_stmt 1       ## /Library/Developer/CommandLineTools/usr/bin/../include/c++/v1/ios:521:0
	.cfi_startproc
## %bb.0:
	pushq	%rbp
	.cfi_def_cfa_offset 16
	.cfi_offset %rbp, -16
	movq	%rsp, %rbp
	.cfi_def_cfa_register %rbp
	movq	%rdi, -8(%rbp)
	movq	-8(%rbp), %rax
Ltmp143:
	.loc	1 522 12 prologue_end   ## /Library/Developer/CommandLineTools/usr/bin/../include/c++/v1/ios:522:12
	movq	24(%rax), %rax
	.loc	1 522 5 is_stmt 0       ## /Library/Developer/CommandLineTools/usr/bin/../include/c++/v1/ios:522:5
	popq	%rbp
	retq
Ltmp144:
Lfunc_end26:
	.cfi_endproc
                                        ## -- End function
	.p2align	4, 0x90         ## -- Begin function _ZNSt3__115basic_streambufIcNS_11char_traitsIcEEE5sputnEPKcl
__ZNSt3__115basic_streambufIcNS_11char_traitsIcEEE5sputnEPKcl: ## @_ZNSt3__115basic_streambufIcNS_11char_traitsIcEEE5sputnEPKcl
Lfunc_begin27:
	.loc	16 229 0 is_stmt 1      ## /Library/Developer/CommandLineTools/usr/bin/../include/c++/v1/streambuf:229:0
	.cfi_startproc
## %bb.0:
	pushq	%rbp
	.cfi_def_cfa_offset 16
	.cfi_offset %rbp, -16
	movq	%rsp, %rbp
	.cfi_def_cfa_register %rbp
	subq	$32, %rsp
	movq	%rdi, -8(%rbp)
	movq	%rsi, -16(%rbp)
	movq	%rdx, -24(%rbp)
	movq	-8(%rbp), %rax
Ltmp145:
	.loc	16 229 21 prologue_end  ## /Library/Developer/CommandLineTools/usr/bin/../include/c++/v1/streambuf:229:21
	movq	-16(%rbp), %rsi
	.loc	16 229 26 is_stmt 0     ## /Library/Developer/CommandLineTools/usr/bin/../include/c++/v1/streambuf:229:26
	movq	-24(%rbp), %rdx
	.loc	16 229 14               ## /Library/Developer/CommandLineTools/usr/bin/../include/c++/v1/streambuf:229:14
	movq	(%rax), %rcx
	movq	%rax, %rdi
	callq	*96(%rcx)
	.loc	16 229 7                ## /Library/Developer/CommandLineTools/usr/bin/../include/c++/v1/streambuf:229:7
	addq	$32, %rsp
	popq	%rbp
	retq
Ltmp146:
Lfunc_end27:
	.cfi_endproc
                                        ## -- End function
	.p2align	4, 0x90         ## -- Begin function _ZNSt3__18ios_base5widthEl
__ZNSt3__18ios_base5widthEl:            ## @_ZNSt3__18ios_base5widthEl
Lfunc_begin28:
	.loc	1 528 0 is_stmt 1       ## /Library/Developer/CommandLineTools/usr/bin/../include/c++/v1/ios:528:0
	.cfi_startproc
## %bb.0:
	pushq	%rbp
	.cfi_def_cfa_offset 16
	.cfi_offset %rbp, -16
	movq	%rsp, %rbp
	.cfi_def_cfa_register %rbp
	movq	%rdi, -8(%rbp)
	movq	%rsi, -16(%rbp)
	movq	-8(%rbp), %rax
Ltmp147:
	.loc	1 529 22 prologue_end   ## /Library/Developer/CommandLineTools/usr/bin/../include/c++/v1/ios:529:22
	movq	24(%rax), %rcx
	.loc	1 529 16 is_stmt 0      ## /Library/Developer/CommandLineTools/usr/bin/../include/c++/v1/ios:529:16
	movq	%rcx, -24(%rbp)
	.loc	1 530 16 is_stmt 1      ## /Library/Developer/CommandLineTools/usr/bin/../include/c++/v1/ios:530:16
	movq	-16(%rbp), %rcx
	.loc	1 530 14 is_stmt 0      ## /Library/Developer/CommandLineTools/usr/bin/../include/c++/v1/ios:530:14
	movq	%rcx, 24(%rax)
	.loc	1 531 12 is_stmt 1      ## /Library/Developer/CommandLineTools/usr/bin/../include/c++/v1/ios:531:12
	movq	-24(%rbp), %rax
	.loc	1 531 5 is_stmt 0       ## /Library/Developer/CommandLineTools/usr/bin/../include/c++/v1/ios:531:5
	popq	%rbp
	retq
Ltmp148:
Lfunc_end28:
	.cfi_endproc
                                        ## -- End function
	.p2align	4, 0x90         ## -- Begin function _ZNSt3__119ostreambuf_iteratorIcNS_11char_traitsIcEEEC2ERNS_13basic_ostreamIcS2_EE
__ZNSt3__119ostreambuf_iteratorIcNS_11char_traitsIcEEEC2ERNS_13basic_ostreamIcS2_EE: ## @_ZNSt3__119ostreambuf_iteratorIcNS_11char_traitsIcEEEC2ERNS_13basic_ostreamIcS2_EE
Lfunc_begin29:
	.loc	15 1079 0 is_stmt 1     ## /Library/Developer/CommandLineTools/usr/bin/../include/c++/v1/iterator:1079:0
	.cfi_startproc
	.cfi_personality 155, ___gxx_personality_v0
	.cfi_lsda 16, Lexception3
## %bb.0:
	pushq	%rbp
	.cfi_def_cfa_offset 16
	.cfi_offset %rbp, -16
	movq	%rsp, %rbp
	.cfi_def_cfa_register %rbp
	subq	$48, %rsp
	movq	%rdi, -8(%rbp)
	movq	%rsi, -16(%rbp)
	movq	-8(%rbp), %rax
Ltmp152:
	.loc	15 1079 19 prologue_end ## /Library/Developer/CommandLineTools/usr/bin/../include/c++/v1/iterator:1079:19
	movq	-16(%rbp), %rcx
	movq	(%rcx), %rdx
	movq	-24(%rdx), %rdx
	addq	%rdx, %rcx
Ltmp149:
	.loc	15 1079 23 is_stmt 0    ## /Library/Developer/CommandLineTools/usr/bin/../include/c++/v1/iterator:1079:23
	movq	%rcx, %rdi
	movq	%rax, -24(%rbp)         ## 8-byte Spill
	callq	__ZNKSt3__19basic_iosIcNS_11char_traitsIcEEE5rdbufEv
Ltmp150:
	movq	%rax, -32(%rbp)         ## 8-byte Spill
	jmp	LBB29_1
LBB29_1:
	.loc	15 0 23                 ## /Library/Developer/CommandLineTools/usr/bin/../include/c++/v1/iterator:0:23
	movq	-24(%rbp), %rax         ## 8-byte Reload
	movq	-32(%rbp), %rcx         ## 8-byte Reload
	.loc	15 1079 11              ## /Library/Developer/CommandLineTools/usr/bin/../include/c++/v1/iterator:1079:11
	movq	%rcx, (%rax)
	.loc	15 1079 33              ## /Library/Developer/CommandLineTools/usr/bin/../include/c++/v1/iterator:1079:33
	addq	$48, %rsp
	popq	%rbp
	retq
LBB29_2:
Ltmp151:
	.loc	15 1079 23              ## /Library/Developer/CommandLineTools/usr/bin/../include/c++/v1/iterator:1079:23
	movq	%rax, %rdi
	movq	%rdx, -40(%rbp)         ## 8-byte Spill
	callq	___clang_call_terminate
Ltmp153:
Lfunc_end29:
	.cfi_endproc
	.section	__TEXT,__gcc_except_tab
	.p2align	2
GCC_except_table29:
Lexception3:
	.byte	255                     ## @LPStart Encoding = omit
	.byte	155                     ## @TType Encoding = indirect pcrel sdata4
	.uleb128 Lttbase1-Lttbaseref1
Lttbaseref1:
	.byte	1                       ## Call site Encoding = uleb128
	.uleb128 Lcst_end3-Lcst_begin3
Lcst_begin3:
	.uleb128 Ltmp149-Lfunc_begin29  ## >> Call Site 1 <<
	.uleb128 Ltmp150-Ltmp149        ##   Call between Ltmp149 and Ltmp150
	.uleb128 Ltmp151-Lfunc_begin29  ##     jumps to Ltmp151
	.byte	1                       ##   On action: 1
Lcst_end3:
	.byte	1                       ## >> Action Record 1 <<
                                        ##   Catch TypeInfo 1
	.byte	0                       ##   No further actions
	.p2align	2
                                        ## >> Catch TypeInfos <<
	.long	0                       ## TypeInfo 1
Lttbase1:
	.p2align	2
                                        ## -- End function
	.section	__TEXT,__text,regular,pure_instructions
	.p2align	4, 0x90         ## -- Begin function _ZNKSt3__19basic_iosIcNS_11char_traitsIcEEE5rdbufEv
__ZNKSt3__19basic_iosIcNS_11char_traitsIcEEE5rdbufEv: ## @_ZNKSt3__19basic_iosIcNS_11char_traitsIcEEE5rdbufEv
Lfunc_begin30:
	.loc	1 738 0 is_stmt 1       ## /Library/Developer/CommandLineTools/usr/bin/../include/c++/v1/ios:738:0
	.cfi_startproc
## %bb.0:
	pushq	%rbp
	.cfi_def_cfa_offset 16
	.cfi_offset %rbp, -16
	movq	%rsp, %rbp
	.cfi_def_cfa_register %rbp
	subq	$16, %rsp
	movq	%rdi, -8(%rbp)
	movq	-8(%rbp), %rax
Ltmp154:
	.loc	1 739 76 prologue_end   ## /Library/Developer/CommandLineTools/usr/bin/../include/c++/v1/ios:739:76
	movq	%rax, %rdi
	callq	__ZNKSt3__18ios_base5rdbufEv
	.loc	1 739 5 is_stmt 0       ## /Library/Developer/CommandLineTools/usr/bin/../include/c++/v1/ios:739:5
	addq	$16, %rsp
	popq	%rbp
	retq
Ltmp155:
Lfunc_end30:
	.cfi_endproc
                                        ## -- End function
	.p2align	4, 0x90         ## -- Begin function _ZNKSt3__18ios_base5rdbufEv
__ZNKSt3__18ios_base5rdbufEv:           ## @_ZNKSt3__18ios_base5rdbufEv
Lfunc_begin31:
	.loc	1 348 0 is_stmt 1       ## /Library/Developer/CommandLineTools/usr/bin/../include/c++/v1/ios:348:0
	.cfi_startproc
## %bb.0:
	pushq	%rbp
	.cfi_def_cfa_offset 16
	.cfi_offset %rbp, -16
	movq	%rsp, %rbp
	.cfi_def_cfa_register %rbp
	movq	%rdi, -8(%rbp)
	movq	-8(%rbp), %rax
Ltmp156:
	.loc	1 348 59 prologue_end   ## /Library/Developer/CommandLineTools/usr/bin/../include/c++/v1/ios:348:59
	movq	40(%rax), %rax
	.loc	1 348 52 is_stmt 0      ## /Library/Developer/CommandLineTools/usr/bin/../include/c++/v1/ios:348:52
	popq	%rbp
	retq
Ltmp157:
Lfunc_end31:
	.cfi_endproc
                                        ## -- End function
	.globl	__ZNSt3__111char_traitsIcE11eq_int_typeEii ## -- Begin function _ZNSt3__111char_traitsIcE11eq_int_typeEii
	.weak_definition	__ZNSt3__111char_traitsIcE11eq_int_typeEii
	.p2align	4, 0x90
__ZNSt3__111char_traitsIcE11eq_int_typeEii: ## @_ZNSt3__111char_traitsIcE11eq_int_typeEii
Lfunc_begin32:
	.loc	11 237 0 is_stmt 1      ## /Library/Developer/CommandLineTools/usr/bin/../include/c++/v1/__string:237:0
	.cfi_startproc
## %bb.0:
	pushq	%rbp
	.cfi_def_cfa_offset 16
	.cfi_offset %rbp, -16
	movq	%rsp, %rbp
	.cfi_def_cfa_register %rbp
	movl	%edi, -4(%rbp)
	movl	%esi, -8(%rbp)
Ltmp158:
	.loc	11 237 17 prologue_end  ## /Library/Developer/CommandLineTools/usr/bin/../include/c++/v1/__string:237:17
	movl	-4(%rbp), %eax
	.loc	11 237 22 is_stmt 0     ## /Library/Developer/CommandLineTools/usr/bin/../include/c++/v1/__string:237:22
	cmpl	-8(%rbp), %eax
	sete	%cl
	.loc	11 237 10               ## /Library/Developer/CommandLineTools/usr/bin/../include/c++/v1/__string:237:10
	andb	$1, %cl
	movzbl	%cl, %eax
	popq	%rbp
	retq
Ltmp159:
Lfunc_end32:
	.cfi_endproc
                                        ## -- End function
	.globl	__ZNSt3__111char_traitsIcE3eofEv ## -- Begin function _ZNSt3__111char_traitsIcE3eofEv
	.weak_definition	__ZNSt3__111char_traitsIcE3eofEv
	.p2align	4, 0x90
__ZNSt3__111char_traitsIcE3eofEv:       ## @_ZNSt3__111char_traitsIcE3eofEv
Lfunc_begin33:
	.loc	11 239 0 is_stmt 1      ## /Library/Developer/CommandLineTools/usr/bin/../include/c++/v1/__string:239:0
	.cfi_startproc
## %bb.0:
	pushq	%rbp
	.cfi_def_cfa_offset 16
	.cfi_offset %rbp, -16
	movq	%rsp, %rbp
	.cfi_def_cfa_register %rbp
Ltmp160:
	.loc	11 239 10 prologue_end  ## /Library/Developer/CommandLineTools/usr/bin/../include/c++/v1/__string:239:10
	movl	$4294967295, %eax       ## imm = 0xFFFFFFFF
	popq	%rbp
	retq
Ltmp161:
Lfunc_end33:
	.cfi_endproc
                                        ## -- End function
	.p2align	4, 0x90         ## -- Begin function _ZNKSt3__19basic_iosIcNS_11char_traitsIcEEE5widenEc
__ZNKSt3__19basic_iosIcNS_11char_traitsIcEEE5widenEc: ## @_ZNKSt3__19basic_iosIcNS_11char_traitsIcEEE5widenEc
Lfunc_begin34:
	.loc	1 776 0                 ## /Library/Developer/CommandLineTools/usr/bin/../include/c++/v1/ios:776:0
	.cfi_startproc
	.cfi_personality 155, ___gxx_personality_v0
	.cfi_lsda 16, Lexception4
## %bb.0:
	pushq	%rbp
	.cfi_def_cfa_offset 16
	.cfi_offset %rbp, -16
	movq	%rsp, %rbp
	.cfi_def_cfa_register %rbp
	subq	$64, %rsp
                                        ## kill: def $sil killed $sil killed $esi
	movq	%rdi, -8(%rbp)
	movb	%sil, -9(%rbp)
	movq	-8(%rbp), %rsi
	leaq	-24(%rbp), %rax
Ltmp167:
	.loc	1 777 41 prologue_end   ## /Library/Developer/CommandLineTools/usr/bin/../include/c++/v1/ios:777:41
	movq	%rax, %rdi
	movq	%rax, -48(%rbp)         ## 8-byte Spill
	callq	__ZNKSt3__18ios_base6getlocEv
Ltmp162:
	movq	-48(%rbp), %rdi         ## 8-byte Reload
	.loc	1 777 12 is_stmt 0      ## /Library/Developer/CommandLineTools/usr/bin/../include/c++/v1/ios:777:12
	callq	__ZNSt3__1L9use_facetINS_5ctypeIcEEEERKT_RKNS_6localeE
Ltmp163:
	movq	%rax, -56(%rbp)         ## 8-byte Spill
	jmp	LBB34_1
LBB34_1:
	.loc	1 777 57                ## /Library/Developer/CommandLineTools/usr/bin/../include/c++/v1/ios:777:57
	movsbl	-9(%rbp), %esi
Ltmp164:
	movq	-56(%rbp), %rdi         ## 8-byte Reload
	.loc	1 777 51                ## /Library/Developer/CommandLineTools/usr/bin/../include/c++/v1/ios:777:51
	callq	__ZNKSt3__15ctypeIcE5widenEc
Ltmp165:
	movb	%al, -57(%rbp)          ## 1-byte Spill
	jmp	LBB34_2
LBB34_2:
	.loc	1 777 5                 ## /Library/Developer/CommandLineTools/usr/bin/../include/c++/v1/ios:777:5
	leaq	-24(%rbp), %rdi
	callq	__ZNSt3__16localeD1Ev
	movb	-57(%rbp), %al          ## 1-byte Reload
	movsbl	%al, %eax
	addq	$64, %rsp
	popq	%rbp
	retq
LBB34_3:
Ltmp166:
                                        ## kill: def $edx killed $edx killed $rdx
	.loc	1 778 1 is_stmt 1       ## /Library/Developer/CommandLineTools/usr/bin/../include/c++/v1/ios:778:1
	movq	%rax, -32(%rbp)
	movl	%edx, -36(%rbp)
	.loc	1 777 5                 ## /Library/Developer/CommandLineTools/usr/bin/../include/c++/v1/ios:777:5
	leaq	-24(%rbp), %rdi
	callq	__ZNSt3__16localeD1Ev
## %bb.4:
	movq	-32(%rbp), %rdi
	callq	__Unwind_Resume
	ud2
Ltmp168:
Lfunc_end34:
	.cfi_endproc
	.section	__TEXT,__gcc_except_tab
	.p2align	2
GCC_except_table34:
Lexception4:
	.byte	255                     ## @LPStart Encoding = omit
	.byte	255                     ## @TType Encoding = omit
	.byte	1                       ## Call site Encoding = uleb128
	.uleb128 Lcst_end4-Lcst_begin4
Lcst_begin4:
	.uleb128 Lfunc_begin34-Lfunc_begin34 ## >> Call Site 1 <<
	.uleb128 Ltmp162-Lfunc_begin34  ##   Call between Lfunc_begin34 and Ltmp162
	.byte	0                       ##     has no landing pad
	.byte	0                       ##   On action: cleanup
	.uleb128 Ltmp162-Lfunc_begin34  ## >> Call Site 2 <<
	.uleb128 Ltmp165-Ltmp162        ##   Call between Ltmp162 and Ltmp165
	.uleb128 Ltmp166-Lfunc_begin34  ##     jumps to Ltmp166
	.byte	0                       ##   On action: cleanup
	.uleb128 Ltmp165-Lfunc_begin34  ## >> Call Site 3 <<
	.uleb128 Lfunc_end34-Ltmp165    ##   Call between Ltmp165 and Lfunc_end34
	.byte	0                       ##     has no landing pad
	.byte	0                       ##   On action: cleanup
Lcst_end4:
	.p2align	2
                                        ## -- End function
	.section	__TEXT,__text,regular,pure_instructions
	.p2align	4, 0x90         ## -- Begin function _ZNSt3__1L9use_facetINS_5ctypeIcEEEERKT_RKNS_6localeE
__ZNSt3__1L9use_facetINS_5ctypeIcEEEERKT_RKNS_6localeE: ## @_ZNSt3__1L9use_facetINS_5ctypeIcEEEERKT_RKNS_6localeE
Lfunc_begin35:
	.loc	5 249 0                 ## /Library/Developer/CommandLineTools/usr/bin/../include/c++/v1/__locale:249:0
	.cfi_startproc
## %bb.0:
	pushq	%rbp
	.cfi_def_cfa_offset 16
	.cfi_offset %rbp, -16
	movq	%rsp, %rbp
	.cfi_def_cfa_register %rbp
	subq	$16, %rsp
	movq	__ZNSt3__15ctypeIcE2idE@GOTPCREL(%rip), %rsi
	movq	%rdi, -8(%rbp)
Ltmp169:
	.loc	5 250 40 prologue_end   ## /Library/Developer/CommandLineTools/usr/bin/../include/c++/v1/__locale:250:40
	movq	-8(%rbp), %rdi
	.loc	5 250 44 is_stmt 0      ## /Library/Developer/CommandLineTools/usr/bin/../include/c++/v1/__locale:250:44
	callq	__ZNKSt3__16locale9use_facetERNS0_2idE
	.loc	5 250 5                 ## /Library/Developer/CommandLineTools/usr/bin/../include/c++/v1/__locale:250:5
	addq	$16, %rsp
	popq	%rbp
	retq
Ltmp170:
Lfunc_end35:
	.cfi_endproc
                                        ## -- End function
	.p2align	4, 0x90         ## -- Begin function _ZNKSt3__15ctypeIcE5widenEc
__ZNKSt3__15ctypeIcE5widenEc:           ## @_ZNKSt3__15ctypeIcE5widenEc
Lfunc_begin36:
	.loc	5 680 0 is_stmt 1       ## /Library/Developer/CommandLineTools/usr/bin/../include/c++/v1/__locale:680:0
	.cfi_startproc
## %bb.0:
	pushq	%rbp
	.cfi_def_cfa_offset 16
	.cfi_offset %rbp, -16
	movq	%rsp, %rbp
	.cfi_def_cfa_register %rbp
	subq	$16, %rsp
                                        ## kill: def $sil killed $sil killed $esi
	movq	%rdi, -8(%rbp)
	movb	%sil, -9(%rbp)
	movq	-8(%rbp), %rax
Ltmp171:
	.loc	5 681 25 prologue_end   ## /Library/Developer/CommandLineTools/usr/bin/../include/c++/v1/__locale:681:25
	movb	-9(%rbp), %cl
	.loc	5 681 16 is_stmt 0      ## /Library/Developer/CommandLineTools/usr/bin/../include/c++/v1/__locale:681:16
	movq	(%rax), %rdx
	movq	%rax, %rdi
	movsbl	%cl, %esi
	callq	*56(%rdx)
	.loc	5 681 9                 ## /Library/Developer/CommandLineTools/usr/bin/../include/c++/v1/__locale:681:9
	movsbl	%al, %eax
	addq	$16, %rsp
	popq	%rbp
	retq
Ltmp172:
Lfunc_end36:
	.cfi_endproc
                                        ## -- End function
	.p2align	4, 0x90         ## -- Begin function _ZNSt3__18ios_base8setstateEj
__ZNSt3__18ios_base8setstateEj:         ## @_ZNSt3__18ios_base8setstateEj
Lfunc_begin37:
	.loc	1 546 0 is_stmt 1       ## /Library/Developer/CommandLineTools/usr/bin/../include/c++/v1/ios:546:0
	.cfi_startproc
## %bb.0:
	pushq	%rbp
	.cfi_def_cfa_offset 16
	.cfi_offset %rbp, -16
	movq	%rsp, %rbp
	.cfi_def_cfa_register %rbp
	subq	$16, %rsp
	movq	%rdi, -8(%rbp)
	movl	%esi, -12(%rbp)
	movq	-8(%rbp), %rax
Ltmp173:
	.loc	1 547 11 prologue_end   ## /Library/Developer/CommandLineTools/usr/bin/../include/c++/v1/ios:547:11
	movl	32(%rax), %ecx
	.loc	1 547 22 is_stmt 0      ## /Library/Developer/CommandLineTools/usr/bin/../include/c++/v1/ios:547:22
	orl	-12(%rbp), %ecx
	.loc	1 547 5                 ## /Library/Developer/CommandLineTools/usr/bin/../include/c++/v1/ios:547:5
	movq	%rax, %rdi
	movl	%ecx, %esi
	callq	__ZNSt3__18ios_base5clearEj
	.loc	1 548 1 is_stmt 1       ## /Library/Developer/CommandLineTools/usr/bin/../include/c++/v1/ios:548:1
	addq	$16, %rsp
	popq	%rbp
	retq
Ltmp174:
Lfunc_end37:
	.cfi_endproc
                                        ## -- End function
	.p2align	4, 0x90         ## -- Begin function _ZNSt3__1L16__to_raw_pointerIKcEEPT_S3_
__ZNSt3__1L16__to_raw_pointerIKcEEPT_S3_: ## @_ZNSt3__1L16__to_raw_pointerIKcEEPT_S3_
Lfunc_begin38:
	.loc	7 1106 0                ## /Library/Developer/CommandLineTools/usr/bin/../include/c++/v1/memory:1106:0
	.cfi_startproc
## %bb.0:
	pushq	%rbp
	.cfi_def_cfa_offset 16
	.cfi_offset %rbp, -16
	movq	%rsp, %rbp
	.cfi_def_cfa_register %rbp
	movq	%rdi, -8(%rbp)
Ltmp175:
	.loc	7 1107 12 prologue_end  ## /Library/Developer/CommandLineTools/usr/bin/../include/c++/v1/memory:1107:12
	movq	-8(%rbp), %rax
	.loc	7 1107 5 is_stmt 0      ## /Library/Developer/CommandLineTools/usr/bin/../include/c++/v1/memory:1107:5
	popq	%rbp
	retq
Ltmp176:
Lfunc_end38:
	.cfi_endproc
                                        ## -- End function
	.p2align	4, 0x90         ## -- Begin function _ZNKSt3__112basic_stringIcNS_11char_traitsIcEENS_9allocatorIcEEE13__get_pointerEv
__ZNKSt3__112basic_stringIcNS_11char_traitsIcEENS_9allocatorIcEEE13__get_pointerEv: ## @_ZNKSt3__112basic_stringIcNS_11char_traitsIcEENS_9allocatorIcEEE13__get_pointerEv
Lfunc_begin39:
	.loc	6 1514 0 is_stmt 1      ## /Library/Developer/CommandLineTools/usr/bin/../include/c++/v1/string:1514:0
	.cfi_startproc
## %bb.0:
	pushq	%rbp
	.cfi_def_cfa_offset 16
	.cfi_offset %rbp, -16
	movq	%rsp, %rbp
	.cfi_def_cfa_register %rbp
	subq	$32, %rsp
	movq	%rdi, -8(%rbp)
	movq	-8(%rbp), %rax
Ltmp177:
	.loc	6 1514 17 prologue_end  ## /Library/Developer/CommandLineTools/usr/bin/../include/c++/v1/string:1514:17
	movq	%rax, %rdi
	movq	%rax, -16(%rbp)         ## 8-byte Spill
	callq	__ZNKSt3__112basic_stringIcNS_11char_traitsIcEENS_9allocatorIcEEE9__is_longEv
	testb	$1, %al
	jne	LBB39_1
	jmp	LBB39_2
LBB39_1:
	.loc	6 0 17 is_stmt 0        ## /Library/Developer/CommandLineTools/usr/bin/../include/c++/v1/string:0:17
	movq	-16(%rbp), %rdi         ## 8-byte Reload
	.loc	6 1514 31               ## /Library/Developer/CommandLineTools/usr/bin/../include/c++/v1/string:1514:31
	callq	__ZNKSt3__112basic_stringIcNS_11char_traitsIcEENS_9allocatorIcEEE18__get_long_pointerEv
	movq	%rax, -24(%rbp)         ## 8-byte Spill
	.loc	6 1514 17               ## /Library/Developer/CommandLineTools/usr/bin/../include/c++/v1/string:1514:17
	jmp	LBB39_3
LBB39_2:
	.loc	6 0 17                  ## /Library/Developer/CommandLineTools/usr/bin/../include/c++/v1/string:0:17
	movq	-16(%rbp), %rdi         ## 8-byte Reload
	.loc	6 1514 54               ## /Library/Developer/CommandLineTools/usr/bin/../include/c++/v1/string:1514:54
	callq	__ZNKSt3__112basic_stringIcNS_11char_traitsIcEENS_9allocatorIcEEE19__get_short_pointerEv
	movq	%rax, -24(%rbp)         ## 8-byte Spill
LBB39_3:
	.loc	6 0 54                  ## /Library/Developer/CommandLineTools/usr/bin/../include/c++/v1/string:0:54
	movq	-24(%rbp), %rax         ## 8-byte Reload
	.loc	6 1514 10               ## /Library/Developer/CommandLineTools/usr/bin/../include/c++/v1/string:1514:10
	addq	$32, %rsp
	popq	%rbp
	retq
Ltmp178:
Lfunc_end39:
	.cfi_endproc
                                        ## -- End function
	.p2align	4, 0x90         ## -- Begin function _ZNKSt3__112basic_stringIcNS_11char_traitsIcEENS_9allocatorIcEEE9__is_longEv
__ZNKSt3__112basic_stringIcNS_11char_traitsIcEENS_9allocatorIcEEE9__is_longEv: ## @_ZNKSt3__112basic_stringIcNS_11char_traitsIcEENS_9allocatorIcEEE9__is_longEv
Lfunc_begin40:
	.loc	6 1420 0 is_stmt 1      ## /Library/Developer/CommandLineTools/usr/bin/../include/c++/v1/string:1420:0
	.cfi_startproc
## %bb.0:
	pushq	%rbp
	.cfi_def_cfa_offset 16
	.cfi_offset %rbp, -16
	movq	%rsp, %rbp
	.cfi_def_cfa_register %rbp
	subq	$16, %rsp
	movq	%rdi, -8(%rbp)
	movq	-8(%rbp), %rdi
Ltmp179:
	.loc	6 1420 27 prologue_end  ## /Library/Developer/CommandLineTools/usr/bin/../include/c++/v1/string:1420:27
	callq	__ZNKSt3__117__compressed_pairINS_12basic_stringIcNS_11char_traitsIcEENS_9allocatorIcEEE5__repES5_E5firstEv
	.loc	6 1420 22 is_stmt 0     ## /Library/Developer/CommandLineTools/usr/bin/../include/c++/v1/string:1420:22
	movzbl	(%rax), %ecx
	movl	%ecx, %eax
	.loc	6 1420 47               ## /Library/Developer/CommandLineTools/usr/bin/../include/c++/v1/string:1420:47
	andq	$1, %rax
	.loc	6 1420 22               ## /Library/Developer/CommandLineTools/usr/bin/../include/c++/v1/string:1420:22
	cmpq	$0, %rax
	setne	%dl
	.loc	6 1420 10               ## /Library/Developer/CommandLineTools/usr/bin/../include/c++/v1/string:1420:10
	andb	$1, %dl
	movzbl	%dl, %eax
	addq	$16, %rsp
	popq	%rbp
	retq
Ltmp180:
Lfunc_end40:
	.cfi_endproc
                                        ## -- End function
	.p2align	4, 0x90         ## -- Begin function _ZNKSt3__112basic_stringIcNS_11char_traitsIcEENS_9allocatorIcEEE18__get_long_pointerEv
__ZNKSt3__112basic_stringIcNS_11char_traitsIcEENS_9allocatorIcEEE18__get_long_pointerEv: ## @_ZNKSt3__112basic_stringIcNS_11char_traitsIcEENS_9allocatorIcEEE18__get_long_pointerEv
Lfunc_begin41:
	.loc	6 1502 0 is_stmt 1      ## /Library/Developer/CommandLineTools/usr/bin/../include/c++/v1/string:1502:0
	.cfi_startproc
## %bb.0:
	pushq	%rbp
	.cfi_def_cfa_offset 16
	.cfi_offset %rbp, -16
	movq	%rsp, %rbp
	.cfi_def_cfa_register %rbp
	subq	$16, %rsp
	movq	%rdi, -8(%rbp)
	movq	-8(%rbp), %rdi
Ltmp181:
	.loc	6 1502 22 prologue_end  ## /Library/Developer/CommandLineTools/usr/bin/../include/c++/v1/string:1502:22
	callq	__ZNKSt3__117__compressed_pairINS_12basic_stringIcNS_11char_traitsIcEENS_9allocatorIcEEE5__repES5_E5firstEv
	.loc	6 1502 34 is_stmt 0     ## /Library/Developer/CommandLineTools/usr/bin/../include/c++/v1/string:1502:34
	movq	16(%rax), %rax
	.loc	6 1502 10               ## /Library/Developer/CommandLineTools/usr/bin/../include/c++/v1/string:1502:10
	addq	$16, %rsp
	popq	%rbp
	retq
Ltmp182:
Lfunc_end41:
	.cfi_endproc
                                        ## -- End function
	.p2align	4, 0x90         ## -- Begin function _ZNKSt3__112basic_stringIcNS_11char_traitsIcEENS_9allocatorIcEEE19__get_short_pointerEv
__ZNKSt3__112basic_stringIcNS_11char_traitsIcEENS_9allocatorIcEEE19__get_short_pointerEv: ## @_ZNKSt3__112basic_stringIcNS_11char_traitsIcEENS_9allocatorIcEEE19__get_short_pointerEv
Lfunc_begin42:
	.loc	6 1508 0 is_stmt 1      ## /Library/Developer/CommandLineTools/usr/bin/../include/c++/v1/string:1508:0
	.cfi_startproc
## %bb.0:
	pushq	%rbp
	.cfi_def_cfa_offset 16
	.cfi_offset %rbp, -16
	movq	%rsp, %rbp
	.cfi_def_cfa_register %rbp
	subq	$16, %rsp
	movq	%rdi, -8(%rbp)
	movq	-8(%rbp), %rdi
Ltmp183:
	.loc	6 1508 64 prologue_end  ## /Library/Developer/CommandLineTools/usr/bin/../include/c++/v1/string:1508:64
	callq	__ZNKSt3__117__compressed_pairINS_12basic_stringIcNS_11char_traitsIcEENS_9allocatorIcEEE5__repES5_E5firstEv
	.loc	6 1508 76 is_stmt 0     ## /Library/Developer/CommandLineTools/usr/bin/../include/c++/v1/string:1508:76
	addq	$1, %rax
	.loc	6 1508 17               ## /Library/Developer/CommandLineTools/usr/bin/../include/c++/v1/string:1508:17
	movq	%rax, %rdi
	callq	__ZNSt3__114pointer_traitsIPKcE10pointer_toERS1_
	.loc	6 1508 10               ## /Library/Developer/CommandLineTools/usr/bin/../include/c++/v1/string:1508:10
	addq	$16, %rsp
	popq	%rbp
	retq
Ltmp184:
Lfunc_end42:
	.cfi_endproc
                                        ## -- End function
	.p2align	4, 0x90         ## -- Begin function _ZNKSt3__117__compressed_pairINS_12basic_stringIcNS_11char_traitsIcEENS_9allocatorIcEEE5__repES5_E5firstEv
__ZNKSt3__117__compressed_pairINS_12basic_stringIcNS_11char_traitsIcEENS_9allocatorIcEEE5__repES5_E5firstEv: ## @_ZNKSt3__117__compressed_pairINS_12basic_stringIcNS_11char_traitsIcEENS_9allocatorIcEEE5__repES5_E5firstEv
Lfunc_begin43:
	.loc	7 2283 0 is_stmt 1      ## /Library/Developer/CommandLineTools/usr/bin/../include/c++/v1/memory:2283:0
	.cfi_startproc
## %bb.0:
	pushq	%rbp
	.cfi_def_cfa_offset 16
	.cfi_offset %rbp, -16
	movq	%rsp, %rbp
	.cfi_def_cfa_register %rbp
	subq	$16, %rsp
	movq	%rdi, -8(%rbp)
	movq	-8(%rbp), %rax
Ltmp185:
	.loc	7 2284 46 prologue_end  ## /Library/Developer/CommandLineTools/usr/bin/../include/c++/v1/memory:2284:46
	movq	%rax, %rdi
	callq	__ZNKSt3__122__compressed_pair_elemINS_12basic_stringIcNS_11char_traitsIcEENS_9allocatorIcEEE5__repELi0ELb0EE5__getEv
	.loc	7 2284 5 is_stmt 0      ## /Library/Developer/CommandLineTools/usr/bin/../include/c++/v1/memory:2284:5
	addq	$16, %rsp
	popq	%rbp
	retq
Ltmp186:
Lfunc_end43:
	.cfi_endproc
                                        ## -- End function
	.p2align	4, 0x90         ## -- Begin function _ZNKSt3__122__compressed_pair_elemINS_12basic_stringIcNS_11char_traitsIcEENS_9allocatorIcEEE5__repELi0ELb0EE5__getEv
__ZNKSt3__122__compressed_pair_elemINS_12basic_stringIcNS_11char_traitsIcEENS_9allocatorIcEEE5__repELi0ELb0EE5__getEv: ## @_ZNKSt3__122__compressed_pair_elemINS_12basic_stringIcNS_11char_traitsIcEENS_9allocatorIcEEE5__repELi0ELb0EE5__getEv
Lfunc_begin44:
	.loc	7 2164 0 is_stmt 1      ## /Library/Developer/CommandLineTools/usr/bin/../include/c++/v1/memory:2164:0
	.cfi_startproc
## %bb.0:
	pushq	%rbp
	.cfi_def_cfa_offset 16
	.cfi_offset %rbp, -16
	movq	%rsp, %rbp
	.cfi_def_cfa_register %rbp
	movq	%rdi, -8(%rbp)
	movq	-8(%rbp), %rax
Ltmp187:
	.loc	7 2164 45 prologue_end  ## /Library/Developer/CommandLineTools/usr/bin/../include/c++/v1/memory:2164:45
	popq	%rbp
	retq
Ltmp188:
Lfunc_end44:
	.cfi_endproc
                                        ## -- End function
	.p2align	4, 0x90         ## -- Begin function _ZNSt3__114pointer_traitsIPKcE10pointer_toERS1_
__ZNSt3__114pointer_traitsIPKcE10pointer_toERS1_: ## @_ZNSt3__114pointer_traitsIPKcE10pointer_toERS1_
Lfunc_begin45:
	.loc	7 989 0                 ## /Library/Developer/CommandLineTools/usr/bin/../include/c++/v1/memory:989:0
	.cfi_startproc
## %bb.0:
	pushq	%rbp
	.cfi_def_cfa_offset 16
	.cfi_offset %rbp, -16
	movq	%rsp, %rbp
	.cfi_def_cfa_register %rbp
	subq	$16, %rsp
	movq	%rdi, -8(%rbp)
Ltmp189:
	.loc	7 989 34 prologue_end   ## /Library/Developer/CommandLineTools/usr/bin/../include/c++/v1/memory:989:34
	movq	-8(%rbp), %rdi
	.loc	7 989 17 is_stmt 0      ## /Library/Developer/CommandLineTools/usr/bin/../include/c++/v1/memory:989:17
	callq	__ZNSt3__1L9addressofIKcEEPT_RS2_
	.loc	7 989 10                ## /Library/Developer/CommandLineTools/usr/bin/../include/c++/v1/memory:989:10
	addq	$16, %rsp
	popq	%rbp
	retq
Ltmp190:
Lfunc_end45:
	.cfi_endproc
                                        ## -- End function
	.p2align	4, 0x90         ## -- Begin function _ZNSt3__1L9addressofIKcEEPT_RS2_
__ZNSt3__1L9addressofIKcEEPT_RS2_:      ## @_ZNSt3__1L9addressofIKcEEPT_RS2_
Lfunc_begin46:
	.loc	8 466 0 is_stmt 1       ## /Library/Developer/CommandLineTools/usr/bin/../include/c++/v1/type_traits:466:0
	.cfi_startproc
## %bb.0:
	pushq	%rbp
	.cfi_def_cfa_offset 16
	.cfi_offset %rbp, -16
	movq	%rsp, %rbp
	.cfi_def_cfa_register %rbp
	movq	%rdi, -8(%rbp)
Ltmp191:
	.loc	8 467 32 prologue_end   ## /Library/Developer/CommandLineTools/usr/bin/../include/c++/v1/type_traits:467:32
	movq	-8(%rbp), %rax
	.loc	8 467 5 is_stmt 0       ## /Library/Developer/CommandLineTools/usr/bin/../include/c++/v1/type_traits:467:5
	popq	%rbp
	retq
Ltmp192:
Lfunc_end46:
	.cfi_endproc
                                        ## -- End function
	.p2align	4, 0x90         ## -- Begin function _ZNKSt3__112basic_stringIcNS_11char_traitsIcEENS_9allocatorIcEEE15__get_long_sizeEv
__ZNKSt3__112basic_stringIcNS_11char_traitsIcEENS_9allocatorIcEEE15__get_long_sizeEv: ## @_ZNKSt3__112basic_stringIcNS_11char_traitsIcEENS_9allocatorIcEEE15__get_long_sizeEv
Lfunc_begin47:
	.loc	6 1482 0 is_stmt 1      ## /Library/Developer/CommandLineTools/usr/bin/../include/c++/v1/string:1482:0
	.cfi_startproc
## %bb.0:
	pushq	%rbp
	.cfi_def_cfa_offset 16
	.cfi_offset %rbp, -16
	movq	%rsp, %rbp
	.cfi_def_cfa_register %rbp
	subq	$16, %rsp
	movq	%rdi, -8(%rbp)
	movq	-8(%rbp), %rdi
Ltmp193:
	.loc	6 1482 22 prologue_end  ## /Library/Developer/CommandLineTools/usr/bin/../include/c++/v1/string:1482:22
	callq	__ZNKSt3__117__compressed_pairINS_12basic_stringIcNS_11char_traitsIcEENS_9allocatorIcEEE5__repES5_E5firstEv
	.loc	6 1482 34 is_stmt 0     ## /Library/Developer/CommandLineTools/usr/bin/../include/c++/v1/string:1482:34
	movq	8(%rax), %rax
	.loc	6 1482 10               ## /Library/Developer/CommandLineTools/usr/bin/../include/c++/v1/string:1482:10
	addq	$16, %rsp
	popq	%rbp
	retq
Ltmp194:
Lfunc_end47:
	.cfi_endproc
                                        ## -- End function
	.p2align	4, 0x90         ## -- Begin function _ZNKSt3__112basic_stringIcNS_11char_traitsIcEENS_9allocatorIcEEE16__get_short_sizeEv
__ZNKSt3__112basic_stringIcNS_11char_traitsIcEENS_9allocatorIcEEE16__get_short_sizeEv: ## @_ZNKSt3__112basic_stringIcNS_11char_traitsIcEENS_9allocatorIcEEE16__get_short_sizeEv
Lfunc_begin48:
	.loc	6 1472 0 is_stmt 1      ## /Library/Developer/CommandLineTools/usr/bin/../include/c++/v1/string:1472:0
	.cfi_startproc
## %bb.0:
	pushq	%rbp
	.cfi_def_cfa_offset 16
	.cfi_offset %rbp, -16
	movq	%rsp, %rbp
	.cfi_def_cfa_register %rbp
	subq	$16, %rsp
	movq	%rdi, -8(%rbp)
	movq	-8(%rbp), %rdi
Ltmp195:
	.loc	6 1472 22 prologue_end  ## /Library/Developer/CommandLineTools/usr/bin/../include/c++/v1/string:1472:22
	callq	__ZNKSt3__117__compressed_pairINS_12basic_stringIcNS_11char_traitsIcEENS_9allocatorIcEEE5__repES5_E5firstEv
	.loc	6 1472 17 is_stmt 0     ## /Library/Developer/CommandLineTools/usr/bin/../include/c++/v1/string:1472:17
	movzbl	(%rax), %ecx
	.loc	6 1472 42               ## /Library/Developer/CommandLineTools/usr/bin/../include/c++/v1/string:1472:42
	sarl	$1, %ecx
	.loc	6 1472 17               ## /Library/Developer/CommandLineTools/usr/bin/../include/c++/v1/string:1472:17
	movslq	%ecx, %rax
	.loc	6 1472 10               ## /Library/Developer/CommandLineTools/usr/bin/../include/c++/v1/string:1472:10
	addq	$16, %rsp
	popq	%rbp
	retq
Ltmp196:
Lfunc_end48:
	.cfi_endproc
                                        ## -- End function
	.globl	__ZN10Window_mgrC2EP6Screen ## -- Begin function _ZN10Window_mgrC2EP6Screen
	.weak_def_can_be_hidden	__ZN10Window_mgrC2EP6Screen
	.p2align	4, 0x90
__ZN10Window_mgrC2EP6Screen:            ## @_ZN10Window_mgrC2EP6Screen
Lfunc_begin49:
	.loc	61 55 0 is_stmt 1       ## screen.cpp:55:0
	.cfi_startproc
## %bb.0:
	pushq	%rbp
	.cfi_def_cfa_offset 16
	.cfi_offset %rbp, -16
	movq	%rsp, %rbp
	.cfi_def_cfa_register %rbp
	movq	%rdi, -8(%rbp)
	movq	%rsi, -16(%rbp)
	movq	-8(%rbp), %rax
Ltmp197:
	.loc	61 56 13 prologue_end   ## screen.cpp:56:13
	movq	-16(%rbp), %rcx
	.loc	61 56 11 is_stmt 0      ## screen.cpp:56:11
	movq	%rcx, (%rax)
Ltmp198:
	.loc	61 57 5 is_stmt 1       ## screen.cpp:57:5
	popq	%rbp
	retq
Ltmp199:
Lfunc_end49:
	.cfi_endproc
                                        ## -- End function
	.globl	__ZN6ScreenD2Ev         ## -- Begin function _ZN6ScreenD2Ev
	.weak_def_can_be_hidden	__ZN6ScreenD2Ev
	.p2align	4, 0x90
__ZN6ScreenD2Ev:                        ## @_ZN6ScreenD2Ev
Lfunc_begin50:
	.loc	61 9 0                  ## screen.cpp:9:0
	.cfi_startproc
## %bb.0:
	pushq	%rbp
	.cfi_def_cfa_offset 16
	.cfi_offset %rbp, -16
	movq	%rsp, %rbp
	.cfi_def_cfa_register %rbp
	subq	$16, %rsp
	movq	%rdi, -8(%rbp)
	movq	-8(%rbp), %rax
Ltmp200:
	.loc	61 9 7 prologue_end     ## screen.cpp:9:7
	addq	$24, %rax
	movq	%rax, %rdi
	callq	__ZNSt3__112basic_stringIcNS_11char_traitsIcEENS_9allocatorIcEEED1Ev
Ltmp201:
	.loc	61 9 7 is_stmt 0        ## screen.cpp:9:7
	addq	$16, %rsp
	popq	%rbp
	retq
Ltmp202:
Lfunc_end50:
	.cfi_endproc
                                        ## -- End function
	.p2align	4, 0x90         ## -- Begin function _ZNSt3__112basic_stringIcNS_11char_traitsIcEENS_9allocatorIcEEEC2Emc
__ZNSt3__112basic_stringIcNS_11char_traitsIcEENS_9allocatorIcEEEC2Emc: ## @_ZNSt3__112basic_stringIcNS_11char_traitsIcEENS_9allocatorIcEEEC2Emc
Lfunc_begin51:
	.loc	6 1926 0 is_stmt 1      ## /Library/Developer/CommandLineTools/usr/bin/../include/c++/v1/string:1926:0
	.cfi_startproc
## %bb.0:
	pushq	%rbp
	.cfi_def_cfa_offset 16
	.cfi_offset %rbp, -16
	movq	%rsp, %rbp
	.cfi_def_cfa_register %rbp
	subq	$32, %rsp
                                        ## kill: def $dl killed $dl killed $edx
	movq	%rdi, -8(%rbp)
	movq	%rsi, -16(%rbp)
	movb	%dl, -17(%rbp)
	movq	-8(%rbp), %rax
Ltmp203:
	.loc	6 834 5 prologue_end    ## /Library/Developer/CommandLineTools/usr/bin/../include/c++/v1/string:834:5
	movq	%rax, %rdi
	movq	%rax, -32(%rbp)         ## 8-byte Spill
	callq	__ZNSt3__117__compressed_pairINS_12basic_stringIcNS_11char_traitsIcEENS_9allocatorIcEEE5__repES5_EC1ILb1EvEEv
Ltmp204:
	.loc	6 1927 12               ## /Library/Developer/CommandLineTools/usr/bin/../include/c++/v1/string:1927:12
	movq	-16(%rbp), %rsi
	movq	-32(%rbp), %rdi         ## 8-byte Reload
	.loc	6 1927 5 is_stmt 0      ## /Library/Developer/CommandLineTools/usr/bin/../include/c++/v1/string:1927:5
	movsbl	-17(%rbp), %edx
	callq	__ZNSt3__112basic_stringIcNS_11char_traitsIcEENS_9allocatorIcEEE6__initEmc
Ltmp205:
	.loc	6 1931 1 is_stmt 1      ## /Library/Developer/CommandLineTools/usr/bin/../include/c++/v1/string:1931:1
	addq	$32, %rsp
	popq	%rbp
	retq
Ltmp206:
Lfunc_end51:
	.cfi_endproc
                                        ## -- End function
	.p2align	4, 0x90         ## -- Begin function _ZNSt3__117__compressed_pairINS_12basic_stringIcNS_11char_traitsIcEENS_9allocatorIcEEE5__repES5_EC1ILb1EvEEv
__ZNSt3__117__compressed_pairINS_12basic_stringIcNS_11char_traitsIcEENS_9allocatorIcEEE5__repES5_EC1ILb1EvEEv: ## @_ZNSt3__117__compressed_pairINS_12basic_stringIcNS_11char_traitsIcEENS_9allocatorIcEEE5__repES5_EC1ILb1EvEEv
Lfunc_begin52:
	.loc	7 2233 0                ## /Library/Developer/CommandLineTools/usr/bin/../include/c++/v1/memory:2233:0
	.cfi_startproc
## %bb.0:
	pushq	%rbp
	.cfi_def_cfa_offset 16
	.cfi_offset %rbp, -16
	movq	%rsp, %rbp
	.cfi_def_cfa_register %rbp
	subq	$16, %rsp
	movq	%rdi, -8(%rbp)
	movq	-8(%rbp), %rdi
Ltmp207:
	.loc	7 2233 33 prologue_end  ## /Library/Developer/CommandLineTools/usr/bin/../include/c++/v1/memory:2233:33
	callq	__ZNSt3__117__compressed_pairINS_12basic_stringIcNS_11char_traitsIcEENS_9allocatorIcEEE5__repES5_EC2ILb1EvEEv
	.loc	7 2233 34 is_stmt 0     ## /Library/Developer/CommandLineTools/usr/bin/../include/c++/v1/memory:2233:34
	addq	$16, %rsp
	popq	%rbp
	retq
Ltmp208:
Lfunc_end52:
	.cfi_endproc
                                        ## -- End function
	.p2align	4, 0x90         ## -- Begin function _ZNSt3__117__compressed_pairINS_12basic_stringIcNS_11char_traitsIcEENS_9allocatorIcEEE5__repES5_EC2ILb1EvEEv
__ZNSt3__117__compressed_pairINS_12basic_stringIcNS_11char_traitsIcEENS_9allocatorIcEEE5__repES5_EC2ILb1EvEEv: ## @_ZNSt3__117__compressed_pairINS_12basic_stringIcNS_11char_traitsIcEENS_9allocatorIcEEE5__repES5_EC2ILb1EvEEv
Lfunc_begin53:
	.loc	7 2233 0 is_stmt 1      ## /Library/Developer/CommandLineTools/usr/bin/../include/c++/v1/memory:2233:0
	.cfi_startproc
## %bb.0:
	pushq	%rbp
	.cfi_def_cfa_offset 16
	.cfi_offset %rbp, -16
	movq	%rsp, %rbp
	.cfi_def_cfa_register %rbp
	subq	$16, %rsp
	movq	%rdi, -8(%rbp)
	movq	-8(%rbp), %rax
Ltmp209:
	.loc	7 2233 33 prologue_end  ## /Library/Developer/CommandLineTools/usr/bin/../include/c++/v1/memory:2233:33
	movq	%rax, %rcx
	.loc	7 2233 13 is_stmt 0     ## /Library/Developer/CommandLineTools/usr/bin/../include/c++/v1/memory:2233:13
	movq	%rcx, %rdi
	movq	%rax, -16(%rbp)         ## 8-byte Spill
	callq	__ZNSt3__122__compressed_pair_elemINS_12basic_stringIcNS_11char_traitsIcEENS_9allocatorIcEEE5__repELi0ELb0EEC2Ev
	movq	-16(%rbp), %rax         ## 8-byte Reload
	movq	%rax, %rdi
	callq	__ZNSt3__122__compressed_pair_elemINS_9allocatorIcEELi1ELb1EEC2Ev
	.loc	7 2233 34               ## /Library/Developer/CommandLineTools/usr/bin/../include/c++/v1/memory:2233:34
	addq	$16, %rsp
	popq	%rbp
	retq
Ltmp210:
Lfunc_end53:
	.cfi_endproc
                                        ## -- End function
	.p2align	4, 0x90         ## -- Begin function _ZNSt3__122__compressed_pair_elemINS_12basic_stringIcNS_11char_traitsIcEENS_9allocatorIcEEE5__repELi0ELb0EEC2Ev
__ZNSt3__122__compressed_pair_elemINS_12basic_stringIcNS_11char_traitsIcEENS_9allocatorIcEEE5__repELi0ELb0EEC2Ev: ## @_ZNSt3__122__compressed_pair_elemINS_12basic_stringIcNS_11char_traitsIcEENS_9allocatorIcEEE5__repELi0ELb0EEC2Ev
Lfunc_begin54:
	.loc	7 2139 0 is_stmt 1      ## /Library/Developer/CommandLineTools/usr/bin/../include/c++/v1/memory:2139:0
	.cfi_startproc
## %bb.0:
	pushq	%rbp
	.cfi_def_cfa_offset 16
	.cfi_offset %rbp, -16
	movq	%rsp, %rbp
	.cfi_def_cfa_register %rbp
	subq	$16, %rsp
	xorl	%esi, %esi
	movq	%rdi, -8(%rbp)
	movq	-8(%rbp), %rax
Ltmp211:
	.loc	7 2139 66 prologue_end  ## /Library/Developer/CommandLineTools/usr/bin/../include/c++/v1/memory:2139:66
	movq	%rax, %rdi
	movl	$24, %edx
	callq	_memset
	.loc	7 2139 78 is_stmt 0     ## /Library/Developer/CommandLineTools/usr/bin/../include/c++/v1/memory:2139:78
	addq	$16, %rsp
	popq	%rbp
	retq
Ltmp212:
Lfunc_end54:
	.cfi_endproc
                                        ## -- End function
	.p2align	4, 0x90         ## -- Begin function _ZNSt3__122__compressed_pair_elemINS_9allocatorIcEELi1ELb1EEC2Ev
__ZNSt3__122__compressed_pair_elemINS_9allocatorIcEELi1ELb1EEC2Ev: ## @_ZNSt3__122__compressed_pair_elemINS_9allocatorIcEELi1ELb1EEC2Ev
Lfunc_begin55:
	.loc	7 2178 0 is_stmt 1      ## /Library/Developer/CommandLineTools/usr/bin/../include/c++/v1/memory:2178:0
	.cfi_startproc
## %bb.0:
	pushq	%rbp
	.cfi_def_cfa_offset 16
	.cfi_offset %rbp, -16
	movq	%rsp, %rbp
	.cfi_def_cfa_register %rbp
	subq	$16, %rsp
	movq	%rdi, -8(%rbp)
	movq	-8(%rbp), %rax
Ltmp213:
	.loc	7 2178 39 prologue_end  ## /Library/Developer/CommandLineTools/usr/bin/../include/c++/v1/memory:2178:39
	movq	%rax, %rdi
	callq	__ZNSt3__19allocatorIcEC2Ev
	.loc	7 2178 72 is_stmt 0     ## /Library/Developer/CommandLineTools/usr/bin/../include/c++/v1/memory:2178:72
	addq	$16, %rsp
	popq	%rbp
	retq
Ltmp214:
Lfunc_end55:
	.cfi_endproc
                                        ## -- End function
	.p2align	4, 0x90         ## -- Begin function _ZNSt3__19allocatorIcEC2Ev
__ZNSt3__19allocatorIcEC2Ev:            ## @_ZNSt3__19allocatorIcEC2Ev
Lfunc_begin56:
	.loc	7 1797 0 is_stmt 1      ## /Library/Developer/CommandLineTools/usr/bin/../include/c++/v1/memory:1797:0
	.cfi_startproc
## %bb.0:
	pushq	%rbp
	.cfi_def_cfa_offset 16
	.cfi_offset %rbp, -16
	movq	%rsp, %rbp
	.cfi_def_cfa_register %rbp
	movq	%rdi, -8(%rbp)
Ltmp215:
	.loc	7 1797 28 prologue_end  ## /Library/Developer/CommandLineTools/usr/bin/../include/c++/v1/memory:1797:28
	popq	%rbp
	retq
Ltmp216:
Lfunc_end56:
	.cfi_endproc
                                        ## -- End function
	.p2align	4, 0x90         ## -- Begin function _ZNSt3__112basic_stringIcNS_11char_traitsIcEENS_9allocatorIcEEE13__get_pointerEv
__ZNSt3__112basic_stringIcNS_11char_traitsIcEENS_9allocatorIcEEE13__get_pointerEv: ## @_ZNSt3__112basic_stringIcNS_11char_traitsIcEENS_9allocatorIcEEE13__get_pointerEv
Lfunc_begin57:
	.loc	6 1511 0                ## /Library/Developer/CommandLineTools/usr/bin/../include/c++/v1/string:1511:0
	.cfi_startproc
## %bb.0:
	pushq	%rbp
	.cfi_def_cfa_offset 16
	.cfi_offset %rbp, -16
	movq	%rsp, %rbp
	.cfi_def_cfa_register %rbp
	subq	$32, %rsp
	movq	%rdi, -8(%rbp)
	movq	-8(%rbp), %rax
Ltmp217:
	.loc	6 1511 17 prologue_end  ## /Library/Developer/CommandLineTools/usr/bin/../include/c++/v1/string:1511:17
	movq	%rax, %rdi
	movq	%rax, -16(%rbp)         ## 8-byte Spill
	callq	__ZNKSt3__112basic_stringIcNS_11char_traitsIcEENS_9allocatorIcEEE9__is_longEv
	testb	$1, %al
	jne	LBB57_1
	jmp	LBB57_2
LBB57_1:
	.loc	6 0 17 is_stmt 0        ## /Library/Developer/CommandLineTools/usr/bin/../include/c++/v1/string:0:17
	movq	-16(%rbp), %rdi         ## 8-byte Reload
	.loc	6 1511 31               ## /Library/Developer/CommandLineTools/usr/bin/../include/c++/v1/string:1511:31
	callq	__ZNSt3__112basic_stringIcNS_11char_traitsIcEENS_9allocatorIcEEE18__get_long_pointerEv
	movq	%rax, -24(%rbp)         ## 8-byte Spill
	.loc	6 1511 17               ## /Library/Developer/CommandLineTools/usr/bin/../include/c++/v1/string:1511:17
	jmp	LBB57_3
LBB57_2:
	.loc	6 0 17                  ## /Library/Developer/CommandLineTools/usr/bin/../include/c++/v1/string:0:17
	movq	-16(%rbp), %rdi         ## 8-byte Reload
	.loc	6 1511 54               ## /Library/Developer/CommandLineTools/usr/bin/../include/c++/v1/string:1511:54
	callq	__ZNSt3__112basic_stringIcNS_11char_traitsIcEENS_9allocatorIcEEE19__get_short_pointerEv
	movq	%rax, -24(%rbp)         ## 8-byte Spill
LBB57_3:
	.loc	6 0 54                  ## /Library/Developer/CommandLineTools/usr/bin/../include/c++/v1/string:0:54
	movq	-24(%rbp), %rax         ## 8-byte Reload
	.loc	6 1511 10               ## /Library/Developer/CommandLineTools/usr/bin/../include/c++/v1/string:1511:10
	addq	$32, %rsp
	popq	%rbp
	retq
Ltmp218:
Lfunc_end57:
	.cfi_endproc
                                        ## -- End function
	.p2align	4, 0x90         ## -- Begin function _ZNSt3__112basic_stringIcNS_11char_traitsIcEENS_9allocatorIcEEE18__get_long_pointerEv
__ZNSt3__112basic_stringIcNS_11char_traitsIcEENS_9allocatorIcEEE18__get_long_pointerEv: ## @_ZNSt3__112basic_stringIcNS_11char_traitsIcEENS_9allocatorIcEEE18__get_long_pointerEv
Lfunc_begin58:
	.loc	6 1499 0 is_stmt 1      ## /Library/Developer/CommandLineTools/usr/bin/../include/c++/v1/string:1499:0
	.cfi_startproc
## %bb.0:
	pushq	%rbp
	.cfi_def_cfa_offset 16
	.cfi_offset %rbp, -16
	movq	%rsp, %rbp
	.cfi_def_cfa_register %rbp
	subq	$16, %rsp
	movq	%rdi, -8(%rbp)
	movq	-8(%rbp), %rdi
Ltmp219:
	.loc	6 1499 22 prologue_end  ## /Library/Developer/CommandLineTools/usr/bin/../include/c++/v1/string:1499:22
	callq	__ZNSt3__117__compressed_pairINS_12basic_stringIcNS_11char_traitsIcEENS_9allocatorIcEEE5__repES5_E5firstEv
	.loc	6 1499 34 is_stmt 0     ## /Library/Developer/CommandLineTools/usr/bin/../include/c++/v1/string:1499:34
	movq	16(%rax), %rax
	.loc	6 1499 10               ## /Library/Developer/CommandLineTools/usr/bin/../include/c++/v1/string:1499:10
	addq	$16, %rsp
	popq	%rbp
	retq
Ltmp220:
Lfunc_end58:
	.cfi_endproc
                                        ## -- End function
	.p2align	4, 0x90         ## -- Begin function _ZNSt3__112basic_stringIcNS_11char_traitsIcEENS_9allocatorIcEEE19__get_short_pointerEv
__ZNSt3__112basic_stringIcNS_11char_traitsIcEENS_9allocatorIcEEE19__get_short_pointerEv: ## @_ZNSt3__112basic_stringIcNS_11char_traitsIcEENS_9allocatorIcEEE19__get_short_pointerEv
Lfunc_begin59:
	.loc	6 1505 0 is_stmt 1      ## /Library/Developer/CommandLineTools/usr/bin/../include/c++/v1/string:1505:0
	.cfi_startproc
## %bb.0:
	pushq	%rbp
	.cfi_def_cfa_offset 16
	.cfi_offset %rbp, -16
	movq	%rsp, %rbp
	.cfi_def_cfa_register %rbp
	subq	$16, %rsp
	movq	%rdi, -8(%rbp)
	movq	-8(%rbp), %rdi
Ltmp221:
	.loc	6 1505 58 prologue_end  ## /Library/Developer/CommandLineTools/usr/bin/../include/c++/v1/string:1505:58
	callq	__ZNSt3__117__compressed_pairINS_12basic_stringIcNS_11char_traitsIcEENS_9allocatorIcEEE5__repES5_E5firstEv
	.loc	6 1505 70 is_stmt 0     ## /Library/Developer/CommandLineTools/usr/bin/../include/c++/v1/string:1505:70
	addq	$1, %rax
	.loc	6 1505 17               ## /Library/Developer/CommandLineTools/usr/bin/../include/c++/v1/string:1505:17
	movq	%rax, %rdi
	callq	__ZNSt3__114pointer_traitsIPcE10pointer_toERc
	.loc	6 1505 10               ## /Library/Developer/CommandLineTools/usr/bin/../include/c++/v1/string:1505:10
	addq	$16, %rsp
	popq	%rbp
	retq
Ltmp222:
Lfunc_end59:
	.cfi_endproc
                                        ## -- End function
	.p2align	4, 0x90         ## -- Begin function _ZNSt3__117__compressed_pairINS_12basic_stringIcNS_11char_traitsIcEENS_9allocatorIcEEE5__repES5_E5firstEv
__ZNSt3__117__compressed_pairINS_12basic_stringIcNS_11char_traitsIcEENS_9allocatorIcEEE5__repES5_E5firstEv: ## @_ZNSt3__117__compressed_pairINS_12basic_stringIcNS_11char_traitsIcEENS_9allocatorIcEEE5__repES5_E5firstEv
Lfunc_begin60:
	.loc	7 2278 0 is_stmt 1      ## /Library/Developer/CommandLineTools/usr/bin/../include/c++/v1/memory:2278:0
	.cfi_startproc
## %bb.0:
	pushq	%rbp
	.cfi_def_cfa_offset 16
	.cfi_offset %rbp, -16
	movq	%rsp, %rbp
	.cfi_def_cfa_register %rbp
	subq	$16, %rsp
	movq	%rdi, -8(%rbp)
	movq	-8(%rbp), %rax
Ltmp223:
	.loc	7 2279 40 prologue_end  ## /Library/Developer/CommandLineTools/usr/bin/../include/c++/v1/memory:2279:40
	movq	%rax, %rdi
	callq	__ZNSt3__122__compressed_pair_elemINS_12basic_stringIcNS_11char_traitsIcEENS_9allocatorIcEEE5__repELi0ELb0EE5__getEv
	.loc	7 2279 5 is_stmt 0      ## /Library/Developer/CommandLineTools/usr/bin/../include/c++/v1/memory:2279:5
	addq	$16, %rsp
	popq	%rbp
	retq
Ltmp224:
Lfunc_end60:
	.cfi_endproc
                                        ## -- End function
	.p2align	4, 0x90         ## -- Begin function _ZNSt3__122__compressed_pair_elemINS_12basic_stringIcNS_11char_traitsIcEENS_9allocatorIcEEE5__repELi0ELb0EE5__getEv
__ZNSt3__122__compressed_pair_elemINS_12basic_stringIcNS_11char_traitsIcEENS_9allocatorIcEEE5__repELi0ELb0EE5__getEv: ## @_ZNSt3__122__compressed_pair_elemINS_12basic_stringIcNS_11char_traitsIcEENS_9allocatorIcEEE5__repELi0ELb0EE5__getEv
Lfunc_begin61:
	.loc	7 2162 0 is_stmt 1      ## /Library/Developer/CommandLineTools/usr/bin/../include/c++/v1/memory:2162:0
	.cfi_startproc
## %bb.0:
	pushq	%rbp
	.cfi_def_cfa_offset 16
	.cfi_offset %rbp, -16
	movq	%rsp, %rbp
	.cfi_def_cfa_register %rbp
	movq	%rdi, -8(%rbp)
	movq	-8(%rbp), %rax
Ltmp225:
	.loc	7 2162 59 prologue_end  ## /Library/Developer/CommandLineTools/usr/bin/../include/c++/v1/memory:2162:59
	popq	%rbp
	retq
Ltmp226:
Lfunc_end61:
	.cfi_endproc
                                        ## -- End function
	.p2align	4, 0x90         ## -- Begin function _ZNSt3__114pointer_traitsIPcE10pointer_toERc
__ZNSt3__114pointer_traitsIPcE10pointer_toERc: ## @_ZNSt3__114pointer_traitsIPcE10pointer_toERc
Lfunc_begin62:
	.loc	7 989 0                 ## /Library/Developer/CommandLineTools/usr/bin/../include/c++/v1/memory:989:0
	.cfi_startproc
## %bb.0:
	pushq	%rbp
	.cfi_def_cfa_offset 16
	.cfi_offset %rbp, -16
	movq	%rsp, %rbp
	.cfi_def_cfa_register %rbp
	subq	$16, %rsp
	movq	%rdi, -8(%rbp)
Ltmp227:
	.loc	7 989 34 prologue_end   ## /Library/Developer/CommandLineTools/usr/bin/../include/c++/v1/memory:989:34
	movq	-8(%rbp), %rdi
	.loc	7 989 17 is_stmt 0      ## /Library/Developer/CommandLineTools/usr/bin/../include/c++/v1/memory:989:17
	callq	__ZNSt3__1L9addressofIcEEPT_RS1_
	.loc	7 989 10                ## /Library/Developer/CommandLineTools/usr/bin/../include/c++/v1/memory:989:10
	addq	$16, %rsp
	popq	%rbp
	retq
Ltmp228:
Lfunc_end62:
	.cfi_endproc
                                        ## -- End function
	.p2align	4, 0x90         ## -- Begin function _ZNSt3__1L9addressofIcEEPT_RS1_
__ZNSt3__1L9addressofIcEEPT_RS1_:       ## @_ZNSt3__1L9addressofIcEEPT_RS1_
Lfunc_begin63:
	.loc	8 466 0 is_stmt 1       ## /Library/Developer/CommandLineTools/usr/bin/../include/c++/v1/type_traits:466:0
	.cfi_startproc
## %bb.0:
	pushq	%rbp
	.cfi_def_cfa_offset 16
	.cfi_offset %rbp, -16
	movq	%rsp, %rbp
	.cfi_def_cfa_register %rbp
	movq	%rdi, -8(%rbp)
Ltmp229:
	.loc	8 467 32 prologue_end   ## /Library/Developer/CommandLineTools/usr/bin/../include/c++/v1/type_traits:467:32
	movq	-8(%rbp), %rax
	.loc	8 467 5 is_stmt 0       ## /Library/Developer/CommandLineTools/usr/bin/../include/c++/v1/type_traits:467:5
	popq	%rbp
	retq
Ltmp230:
Lfunc_end63:
	.cfi_endproc
                                        ## -- End function
	.p2align	4, 0x90         ## -- Begin function _ZNSt3__112basic_stringIcNS_11char_traitsIcEENS_9allocatorIcEEE13__move_assignERS5_NS_17integral_constantIbLb1EEE
__ZNSt3__112basic_stringIcNS_11char_traitsIcEENS_9allocatorIcEEE13__move_assignERS5_NS_17integral_constantIbLb1EEE: ## @_ZNSt3__112basic_stringIcNS_11char_traitsIcEENS_9allocatorIcEEE13__move_assignERS5_NS_17integral_constantIbLb1EEE
Lfunc_begin64:
	.loc	6 2291 0 is_stmt 1      ## /Library/Developer/CommandLineTools/usr/bin/../include/c++/v1/string:2291:0
	.cfi_startproc
## %bb.0:
	pushq	%rbp
	.cfi_def_cfa_offset 16
	.cfi_offset %rbp, -16
	movq	%rsp, %rbp
	.cfi_def_cfa_register %rbp
	subq	$48, %rsp
	movq	%rdi, -16(%rbp)
	movq	%rsi, -24(%rbp)
	movq	-16(%rbp), %rax
Ltmp231:
	.loc	6 2292 5 prologue_end   ## /Library/Developer/CommandLineTools/usr/bin/../include/c++/v1/string:2292:5
	movq	%rax, %rdi
	movq	%rax, -32(%rbp)         ## 8-byte Spill
	callq	__ZNSt3__112basic_stringIcNS_11char_traitsIcEENS_9allocatorIcEEE18__clear_and_shrinkEv
	.loc	6 2293 20               ## /Library/Developer/CommandLineTools/usr/bin/../include/c++/v1/string:2293:20
	movq	-24(%rbp), %rdi
	.loc	6 2293 31 is_stmt 0     ## /Library/Developer/CommandLineTools/usr/bin/../include/c++/v1/string:2293:31
	callq	__ZNSt3__117__compressed_pairINS_12basic_stringIcNS_11char_traitsIcEENS_9allocatorIcEEE5__repES5_E5firstEv
	movq	-32(%rbp), %rdi         ## 8-byte Reload
	movq	%rax, -40(%rbp)         ## 8-byte Spill
	.loc	6 2293 10               ## /Library/Developer/CommandLineTools/usr/bin/../include/c++/v1/string:2293:10
	callq	__ZNSt3__117__compressed_pairINS_12basic_stringIcNS_11char_traitsIcEENS_9allocatorIcEEE5__repES5_E5firstEv
	movq	-40(%rbp), %rcx         ## 8-byte Reload
	.loc	6 2293 18               ## /Library/Developer/CommandLineTools/usr/bin/../include/c++/v1/string:2293:18
	movq	(%rcx), %rdx
	movq	%rdx, (%rax)
	movq	8(%rcx), %rdx
	movq	%rdx, 8(%rax)
	movq	16(%rcx), %rdx
	movq	%rdx, 16(%rax)
	.loc	6 2294 25 is_stmt 1     ## /Library/Developer/CommandLineTools/usr/bin/../include/c++/v1/string:2294:25
	movq	-24(%rbp), %rsi
	movq	-32(%rbp), %rdi         ## 8-byte Reload
	.loc	6 2294 5 is_stmt 0      ## /Library/Developer/CommandLineTools/usr/bin/../include/c++/v1/string:2294:5
	callq	__ZNSt3__112basic_stringIcNS_11char_traitsIcEENS_9allocatorIcEEE19__move_assign_allocERS5_
	.loc	6 2295 5 is_stmt 1      ## /Library/Developer/CommandLineTools/usr/bin/../include/c++/v1/string:2295:5
	movq	-24(%rbp), %rdi
	.loc	6 2295 11 is_stmt 0     ## /Library/Developer/CommandLineTools/usr/bin/../include/c++/v1/string:2295:11
	callq	__ZNSt3__112basic_stringIcNS_11char_traitsIcEENS_9allocatorIcEEE6__zeroEv
	.loc	6 2296 1 is_stmt 1      ## /Library/Developer/CommandLineTools/usr/bin/../include/c++/v1/string:2296:1
	addq	$48, %rsp
	popq	%rbp
	retq
Ltmp232:
Lfunc_end64:
	.cfi_endproc
                                        ## -- End function
	.p2align	4, 0x90         ## -- Begin function _ZNSt3__112basic_stringIcNS_11char_traitsIcEENS_9allocatorIcEEE18__clear_and_shrinkEv
__ZNSt3__112basic_stringIcNS_11char_traitsIcEENS_9allocatorIcEEE18__clear_and_shrinkEv: ## @_ZNSt3__112basic_stringIcNS_11char_traitsIcEENS_9allocatorIcEEE18__clear_and_shrinkEv
Lfunc_begin65:
	.loc	6 3819 0                ## /Library/Developer/CommandLineTools/usr/bin/../include/c++/v1/string:3819:0
	.cfi_startproc
## %bb.0:
	pushq	%rbp
	.cfi_def_cfa_offset 16
	.cfi_offset %rbp, -16
	movq	%rsp, %rbp
	.cfi_def_cfa_register %rbp
	subq	$32, %rsp
	movq	%rdi, -8(%rbp)
	movq	-8(%rbp), %rax
Ltmp233:
	.loc	6 3820 5 prologue_end   ## /Library/Developer/CommandLineTools/usr/bin/../include/c++/v1/string:3820:5
	movq	%rax, %rdi
	movq	%rax, -16(%rbp)         ## 8-byte Spill
	callq	__ZNSt3__112basic_stringIcNS_11char_traitsIcEENS_9allocatorIcEEE5clearEv
	movq	-16(%rbp), %rdi         ## 8-byte Reload
Ltmp234:
	.loc	6 3821 8                ## /Library/Developer/CommandLineTools/usr/bin/../include/c++/v1/string:3821:8
	callq	__ZNKSt3__112basic_stringIcNS_11char_traitsIcEENS_9allocatorIcEEE9__is_longEv
Ltmp235:
	.loc	6 3821 8 is_stmt 0      ## /Library/Developer/CommandLineTools/usr/bin/../include/c++/v1/string:3821:8
	testb	$1, %al
	jne	LBB65_1
	jmp	LBB65_2
LBB65_1:
	.loc	6 0 8                   ## /Library/Developer/CommandLineTools/usr/bin/../include/c++/v1/string:0:8
	movq	-16(%rbp), %rdi         ## 8-byte Reload
Ltmp236:
	.loc	6 3823 36 is_stmt 1     ## /Library/Developer/CommandLineTools/usr/bin/../include/c++/v1/string:3823:36
	callq	__ZNSt3__112basic_stringIcNS_11char_traitsIcEENS_9allocatorIcEEE7__allocEv
	movq	-16(%rbp), %rdi         ## 8-byte Reload
	movq	%rax, -24(%rbp)         ## 8-byte Spill
	.loc	6 3823 47 is_stmt 0     ## /Library/Developer/CommandLineTools/usr/bin/../include/c++/v1/string:3823:47
	callq	__ZNSt3__112basic_stringIcNS_11char_traitsIcEENS_9allocatorIcEEE18__get_long_pointerEv
	movq	-16(%rbp), %rdi         ## 8-byte Reload
	movq	%rax, -32(%rbp)         ## 8-byte Spill
	.loc	6 3823 69               ## /Library/Developer/CommandLineTools/usr/bin/../include/c++/v1/string:3823:69
	callq	__ZNKSt3__112basic_stringIcNS_11char_traitsIcEENS_9allocatorIcEEE8capacityEv
	.loc	6 3823 80               ## /Library/Developer/CommandLineTools/usr/bin/../include/c++/v1/string:3823:80
	addq	$1, %rax
	movq	-24(%rbp), %rdi         ## 8-byte Reload
	movq	-32(%rbp), %rsi         ## 8-byte Reload
	.loc	6 3823 9                ## /Library/Developer/CommandLineTools/usr/bin/../include/c++/v1/string:3823:9
	movq	%rax, %rdx
	callq	__ZNSt3__116allocator_traitsINS_9allocatorIcEEE10deallocateERS2_Pcm
	xorl	%ecx, %ecx
	movl	%ecx, %esi
	movq	-16(%rbp), %rdi         ## 8-byte Reload
	.loc	6 3824 9 is_stmt 1      ## /Library/Developer/CommandLineTools/usr/bin/../include/c++/v1/string:3824:9
	callq	__ZNSt3__112basic_stringIcNS_11char_traitsIcEENS_9allocatorIcEEE14__set_long_capEm
	xorl	%ecx, %ecx
	movl	%ecx, %esi
	movq	-16(%rbp), %rdi         ## 8-byte Reload
	.loc	6 3825 9                ## /Library/Developer/CommandLineTools/usr/bin/../include/c++/v1/string:3825:9
	callq	__ZNSt3__112basic_stringIcNS_11char_traitsIcEENS_9allocatorIcEEE16__set_short_sizeEm
Ltmp237:
LBB65_2:
	.loc	6 3827 1                ## /Library/Developer/CommandLineTools/usr/bin/../include/c++/v1/string:3827:1
	addq	$32, %rsp
	popq	%rbp
	retq
Ltmp238:
Lfunc_end65:
	.cfi_endproc
                                        ## -- End function
	.p2align	4, 0x90         ## -- Begin function _ZNSt3__112basic_stringIcNS_11char_traitsIcEENS_9allocatorIcEEE19__move_assign_allocERS5_
__ZNSt3__112basic_stringIcNS_11char_traitsIcEENS_9allocatorIcEEE19__move_assign_allocERS5_: ## @_ZNSt3__112basic_stringIcNS_11char_traitsIcEENS_9allocatorIcEEE19__move_assign_allocERS5_
Lfunc_begin66:
	.loc	6 1626 0                ## /Library/Developer/CommandLineTools/usr/bin/../include/c++/v1/string:1626:0
	.cfi_startproc
## %bb.0:
	pushq	%rbp
	.cfi_def_cfa_offset 16
	.cfi_offset %rbp, -16
	movq	%rsp, %rbp
	.cfi_def_cfa_register %rbp
	subq	$32, %rsp
	movq	%rdi, -8(%rbp)
	movq	%rsi, -16(%rbp)
	movq	-8(%rbp), %rdi
Ltmp239:
	.loc	6 1626 26 prologue_end  ## /Library/Developer/CommandLineTools/usr/bin/../include/c++/v1/string:1626:26
	movq	-16(%rbp), %rsi
	.loc	6 1626 6 is_stmt 0      ## /Library/Developer/CommandLineTools/usr/bin/../include/c++/v1/string:1626:6
	callq	__ZNSt3__112basic_stringIcNS_11char_traitsIcEENS_9allocatorIcEEE19__move_assign_allocERS5_NS_17integral_constantIbLb1EEE
	.loc	6 1627 89 is_stmt 1     ## /Library/Developer/CommandLineTools/usr/bin/../include/c++/v1/string:1627:89
	addq	$32, %rsp
	popq	%rbp
	retq
Ltmp240:
Lfunc_end66:
	.cfi_endproc
                                        ## -- End function
	.p2align	4, 0x90         ## -- Begin function _ZNSt3__112basic_stringIcNS_11char_traitsIcEENS_9allocatorIcEEE6__zeroEv
__ZNSt3__112basic_stringIcNS_11char_traitsIcEENS_9allocatorIcEEE6__zeroEv: ## @_ZNSt3__112basic_stringIcNS_11char_traitsIcEENS_9allocatorIcEEE6__zeroEv
Lfunc_begin67:
	.loc	6 1518 0                ## /Library/Developer/CommandLineTools/usr/bin/../include/c++/v1/string:1518:0
	.cfi_startproc
## %bb.0:
	pushq	%rbp
	.cfi_def_cfa_offset 16
	.cfi_offset %rbp, -16
	movq	%rsp, %rbp
	.cfi_def_cfa_register %rbp
	subq	$32, %rsp
	movq	%rdi, -8(%rbp)
	movq	-8(%rbp), %rdi
Ltmp241:
	.loc	6 1519 48 prologue_end  ## /Library/Developer/CommandLineTools/usr/bin/../include/c++/v1/string:1519:48
	callq	__ZNSt3__117__compressed_pairINS_12basic_stringIcNS_11char_traitsIcEENS_9allocatorIcEEE5__repES5_E5firstEv
	.loc	6 1519 25 is_stmt 0     ## /Library/Developer/CommandLineTools/usr/bin/../include/c++/v1/string:1519:25
	movq	%rax, -16(%rbp)
Ltmp242:
	.loc	6 1520 27 is_stmt 1     ## /Library/Developer/CommandLineTools/usr/bin/../include/c++/v1/string:1520:27
	movl	$0, -20(%rbp)
LBB67_1:                                ## =>This Inner Loop Header: Depth=1
Ltmp243:
	.loc	6 1520 40 is_stmt 0     ## /Library/Developer/CommandLineTools/usr/bin/../include/c++/v1/string:1520:40
	cmpl	$3, -20(%rbp)
Ltmp244:
	.loc	6 1520 13               ## /Library/Developer/CommandLineTools/usr/bin/../include/c++/v1/string:1520:13
	jae	LBB67_4
## %bb.2:                               ##   in Loop: Header=BB67_1 Depth=1
Ltmp245:
	.loc	6 1521 17 is_stmt 1     ## /Library/Developer/CommandLineTools/usr/bin/../include/c++/v1/string:1521:17
	movq	-16(%rbp), %rax
	movl	-20(%rbp), %ecx
	movl	%ecx, %edx
	.loc	6 1521 26 is_stmt 0     ## /Library/Developer/CommandLineTools/usr/bin/../include/c++/v1/string:1521:26
	movq	$0, (%rax,%rdx,8)
## %bb.3:                               ##   in Loop: Header=BB67_1 Depth=1
	.loc	6 1520 53 is_stmt 1     ## /Library/Developer/CommandLineTools/usr/bin/../include/c++/v1/string:1520:53
	movl	-20(%rbp), %eax
	addl	$1, %eax
	movl	%eax, -20(%rbp)
	.loc	6 1520 13 is_stmt 0     ## /Library/Developer/CommandLineTools/usr/bin/../include/c++/v1/string:1520:13
	jmp	LBB67_1
Ltmp246:
LBB67_4:
	.loc	6 1522 9 is_stmt 1      ## /Library/Developer/CommandLineTools/usr/bin/../include/c++/v1/string:1522:9
	addq	$32, %rsp
	popq	%rbp
	retq
Ltmp247:
Lfunc_end67:
	.cfi_endproc
                                        ## -- End function
	.p2align	4, 0x90         ## -- Begin function _ZNSt3__112basic_stringIcNS_11char_traitsIcEENS_9allocatorIcEEE5clearEv
__ZNSt3__112basic_stringIcNS_11char_traitsIcEENS_9allocatorIcEEE5clearEv: ## @_ZNSt3__112basic_stringIcNS_11char_traitsIcEENS_9allocatorIcEEE5clearEv
Lfunc_begin68:
	.loc	6 3061 0                ## /Library/Developer/CommandLineTools/usr/bin/../include/c++/v1/string:3061:0
	.cfi_startproc
	.cfi_personality 155, ___gxx_personality_v0
	.cfi_lsda 16, Lexception5
## %bb.0:
	pushq	%rbp
	.cfi_def_cfa_offset 16
	.cfi_offset %rbp, -16
	movq	%rsp, %rbp
	.cfi_def_cfa_register %rbp
	subq	$32, %rsp
	movq	%rdi, -8(%rbp)
	movq	-8(%rbp), %rax
Ltmp248:
Ltmp251:
	.loc	6 3062 5 prologue_end   ## /Library/Developer/CommandLineTools/usr/bin/../include/c++/v1/string:3062:5
	movq	%rax, %rdi
	movq	%rax, -24(%rbp)         ## 8-byte Spill
	callq	__ZNSt3__112basic_stringIcNS_11char_traitsIcEENS_9allocatorIcEEE26__invalidate_all_iteratorsEv
Ltmp249:
	jmp	LBB68_1
LBB68_1:
	.loc	6 0 5 is_stmt 0         ## /Library/Developer/CommandLineTools/usr/bin/../include/c++/v1/string:0:5
	movq	-24(%rbp), %rdi         ## 8-byte Reload
Ltmp252:
	.loc	6 3063 9 is_stmt 1      ## /Library/Developer/CommandLineTools/usr/bin/../include/c++/v1/string:3063:9
	callq	__ZNKSt3__112basic_stringIcNS_11char_traitsIcEENS_9allocatorIcEEE9__is_longEv
Ltmp253:
	.loc	6 3063 9 is_stmt 0      ## /Library/Developer/CommandLineTools/usr/bin/../include/c++/v1/string:3063:9
	testb	$1, %al
	jne	LBB68_2
	jmp	LBB68_3
LBB68_2:
	.loc	6 0 9                   ## /Library/Developer/CommandLineTools/usr/bin/../include/c++/v1/string:0:9
	movq	-24(%rbp), %rdi         ## 8-byte Reload
Ltmp254:
	.loc	6 3065 30 is_stmt 1     ## /Library/Developer/CommandLineTools/usr/bin/../include/c++/v1/string:3065:30
	callq	__ZNSt3__112basic_stringIcNS_11char_traitsIcEENS_9allocatorIcEEE18__get_long_pointerEv
	.loc	6 3065 52 is_stmt 0     ## /Library/Developer/CommandLineTools/usr/bin/../include/c++/v1/string:3065:52
	movb	$0, -9(%rbp)
	.loc	6 3065 9                ## /Library/Developer/CommandLineTools/usr/bin/../include/c++/v1/string:3065:9
	movq	%rax, %rdi
	leaq	-9(%rbp), %rsi
	callq	__ZNSt3__111char_traitsIcE6assignERcRKc
	xorl	%ecx, %ecx
	movl	%ecx, %esi
	movq	-24(%rbp), %rdi         ## 8-byte Reload
	.loc	6 3066 9 is_stmt 1      ## /Library/Developer/CommandLineTools/usr/bin/../include/c++/v1/string:3066:9
	callq	__ZNSt3__112basic_stringIcNS_11char_traitsIcEENS_9allocatorIcEEE15__set_long_sizeEm
	.loc	6 3067 5                ## /Library/Developer/CommandLineTools/usr/bin/../include/c++/v1/string:3067:5
	jmp	LBB68_4
Ltmp255:
LBB68_3:
	.loc	6 0 5 is_stmt 0         ## /Library/Developer/CommandLineTools/usr/bin/../include/c++/v1/string:0:5
	movq	-24(%rbp), %rdi         ## 8-byte Reload
Ltmp256:
	.loc	6 3070 30 is_stmt 1     ## /Library/Developer/CommandLineTools/usr/bin/../include/c++/v1/string:3070:30
	callq	__ZNSt3__112basic_stringIcNS_11char_traitsIcEENS_9allocatorIcEEE19__get_short_pointerEv
	.loc	6 3070 53 is_stmt 0     ## /Library/Developer/CommandLineTools/usr/bin/../include/c++/v1/string:3070:53
	movb	$0, -10(%rbp)
	.loc	6 3070 9                ## /Library/Developer/CommandLineTools/usr/bin/../include/c++/v1/string:3070:9
	movq	%rax, %rdi
	leaq	-10(%rbp), %rsi
	callq	__ZNSt3__111char_traitsIcE6assignERcRKc
	xorl	%ecx, %ecx
	movl	%ecx, %esi
	movq	-24(%rbp), %rdi         ## 8-byte Reload
	.loc	6 3071 9 is_stmt 1      ## /Library/Developer/CommandLineTools/usr/bin/../include/c++/v1/string:3071:9
	callq	__ZNSt3__112basic_stringIcNS_11char_traitsIcEENS_9allocatorIcEEE16__set_short_sizeEm
Ltmp257:
LBB68_4:
	.loc	6 3073 1                ## /Library/Developer/CommandLineTools/usr/bin/../include/c++/v1/string:3073:1
	addq	$32, %rsp
	popq	%rbp
	retq
LBB68_5:
Ltmp250:
	.loc	6 3062 5                ## /Library/Developer/CommandLineTools/usr/bin/../include/c++/v1/string:3062:5
	movq	%rax, %rdi
	movq	%rdx, -32(%rbp)         ## 8-byte Spill
	callq	___clang_call_terminate
Ltmp258:
Lfunc_end68:
	.cfi_endproc
	.section	__TEXT,__gcc_except_tab
	.p2align	2
GCC_except_table68:
Lexception5:
	.byte	255                     ## @LPStart Encoding = omit
	.byte	155                     ## @TType Encoding = indirect pcrel sdata4
	.uleb128 Lttbase2-Lttbaseref2
Lttbaseref2:
	.byte	1                       ## Call site Encoding = uleb128
	.uleb128 Lcst_end5-Lcst_begin5
Lcst_begin5:
	.uleb128 Ltmp248-Lfunc_begin68  ## >> Call Site 1 <<
	.uleb128 Ltmp249-Ltmp248        ##   Call between Ltmp248 and Ltmp249
	.uleb128 Ltmp250-Lfunc_begin68  ##     jumps to Ltmp250
	.byte	1                       ##   On action: 1
Lcst_end5:
	.byte	1                       ## >> Action Record 1 <<
                                        ##   Catch TypeInfo 1
	.byte	0                       ##   No further actions
	.p2align	2
                                        ## >> Catch TypeInfos <<
	.long	0                       ## TypeInfo 1
Lttbase2:
	.p2align	2
                                        ## -- End function
	.section	__TEXT,__text,regular,pure_instructions
	.p2align	4, 0x90         ## -- Begin function _ZNSt3__116allocator_traitsINS_9allocatorIcEEE10deallocateERS2_Pcm
__ZNSt3__116allocator_traitsINS_9allocatorIcEEE10deallocateERS2_Pcm: ## @_ZNSt3__116allocator_traitsINS_9allocatorIcEEE10deallocateERS2_Pcm
Lfunc_begin69:
	.loc	7 1554 0                ## /Library/Developer/CommandLineTools/usr/bin/../include/c++/v1/memory:1554:0
	.cfi_startproc
## %bb.0:
	pushq	%rbp
	.cfi_def_cfa_offset 16
	.cfi_offset %rbp, -16
	movq	%rsp, %rbp
	.cfi_def_cfa_register %rbp
	subq	$32, %rsp
	movq	%rdi, -8(%rbp)
	movq	%rsi, -16(%rbp)
	movq	%rdx, -24(%rbp)
Ltmp259:
	.loc	7 1554 10 prologue_end  ## /Library/Developer/CommandLineTools/usr/bin/../include/c++/v1/memory:1554:10
	movq	-8(%rbp), %rdi
	.loc	7 1554 25 is_stmt 0     ## /Library/Developer/CommandLineTools/usr/bin/../include/c++/v1/memory:1554:25
	movq	-16(%rbp), %rsi
	.loc	7 1554 30               ## /Library/Developer/CommandLineTools/usr/bin/../include/c++/v1/memory:1554:30
	movq	-24(%rbp), %rdx
	.loc	7 1554 14               ## /Library/Developer/CommandLineTools/usr/bin/../include/c++/v1/memory:1554:14
	callq	__ZNSt3__19allocatorIcE10deallocateEPcm
	.loc	7 1554 35               ## /Library/Developer/CommandLineTools/usr/bin/../include/c++/v1/memory:1554:35
	addq	$32, %rsp
	popq	%rbp
	retq
Ltmp260:
Lfunc_end69:
	.cfi_endproc
                                        ## -- End function
	.p2align	4, 0x90         ## -- Begin function _ZNSt3__112basic_stringIcNS_11char_traitsIcEENS_9allocatorIcEEE7__allocEv
__ZNSt3__112basic_stringIcNS_11char_traitsIcEENS_9allocatorIcEEE7__allocEv: ## @_ZNSt3__112basic_stringIcNS_11char_traitsIcEENS_9allocatorIcEEE7__allocEv
Lfunc_begin70:
	.loc	6 1434 0 is_stmt 1      ## /Library/Developer/CommandLineTools/usr/bin/../include/c++/v1/string:1434:0
	.cfi_startproc
## %bb.0:
	pushq	%rbp
	.cfi_def_cfa_offset 16
	.cfi_offset %rbp, -16
	movq	%rsp, %rbp
	.cfi_def_cfa_register %rbp
	subq	$16, %rsp
	movq	%rdi, -8(%rbp)
	movq	-8(%rbp), %rdi
Ltmp261:
	.loc	6 1434 22 prologue_end  ## /Library/Developer/CommandLineTools/usr/bin/../include/c++/v1/string:1434:22
	callq	__ZNSt3__117__compressed_pairINS_12basic_stringIcNS_11char_traitsIcEENS_9allocatorIcEEE5__repES5_E6secondEv
	.loc	6 1434 10 is_stmt 0     ## /Library/Developer/CommandLineTools/usr/bin/../include/c++/v1/string:1434:10
	addq	$16, %rsp
	popq	%rbp
	retq
Ltmp262:
Lfunc_end70:
	.cfi_endproc
                                        ## -- End function
	.p2align	4, 0x90         ## -- Begin function _ZNKSt3__112basic_stringIcNS_11char_traitsIcEENS_9allocatorIcEEE8capacityEv
__ZNKSt3__112basic_stringIcNS_11char_traitsIcEENS_9allocatorIcEEE8capacityEv: ## @_ZNKSt3__112basic_stringIcNS_11char_traitsIcEENS_9allocatorIcEEE8capacityEv
Lfunc_begin71:
	.loc	6 951 0 is_stmt 1       ## /Library/Developer/CommandLineTools/usr/bin/../include/c++/v1/string:951:0
	.cfi_startproc
## %bb.0:
	pushq	%rbp
	.cfi_def_cfa_offset 16
	.cfi_offset %rbp, -16
	movq	%rsp, %rbp
	.cfi_def_cfa_register %rbp
	subq	$32, %rsp
	movq	%rdi, -8(%rbp)
	movq	-8(%rbp), %rax
Ltmp263:
	.loc	6 951 18 prologue_end   ## /Library/Developer/CommandLineTools/usr/bin/../include/c++/v1/string:951:18
	movq	%rax, %rdi
	movq	%rax, -16(%rbp)         ## 8-byte Spill
	callq	__ZNKSt3__112basic_stringIcNS_11char_traitsIcEENS_9allocatorIcEEE9__is_longEv
	testb	$1, %al
	jne	LBB71_1
	jmp	LBB71_2
LBB71_1:
	.loc	6 0 18 is_stmt 0        ## /Library/Developer/CommandLineTools/usr/bin/../include/c++/v1/string:0:18
	movq	-16(%rbp), %rdi         ## 8-byte Reload
	.loc	6 951 32                ## /Library/Developer/CommandLineTools/usr/bin/../include/c++/v1/string:951:32
	callq	__ZNKSt3__112basic_stringIcNS_11char_traitsIcEENS_9allocatorIcEEE14__get_long_capEv
	movq	%rax, -24(%rbp)         ## 8-byte Spill
	.loc	6 951 18                ## /Library/Developer/CommandLineTools/usr/bin/../include/c++/v1/string:951:18
	jmp	LBB71_3
LBB71_2:
	movl	$23, %eax
	movq	%rax, -24(%rbp)         ## 8-byte Spill
	jmp	LBB71_3
LBB71_3:
	.loc	6 0 18                  ## /Library/Developer/CommandLineTools/usr/bin/../include/c++/v1/string:0:18
	movq	-24(%rbp), %rax         ## 8-byte Reload
	.loc	6 952 67 is_stmt 1      ## /Library/Developer/CommandLineTools/usr/bin/../include/c++/v1/string:952:67
	subq	$1, %rax
	.loc	6 951 10                ## /Library/Developer/CommandLineTools/usr/bin/../include/c++/v1/string:951:10
	addq	$32, %rsp
	popq	%rbp
	retq
Ltmp264:
Lfunc_end71:
	.cfi_endproc
                                        ## -- End function
	.p2align	4, 0x90         ## -- Begin function _ZNSt3__112basic_stringIcNS_11char_traitsIcEENS_9allocatorIcEEE14__set_long_capEm
__ZNSt3__112basic_stringIcNS_11char_traitsIcEENS_9allocatorIcEEE14__set_long_capEm: ## @_ZNSt3__112basic_stringIcNS_11char_traitsIcEENS_9allocatorIcEEE14__set_long_capEm
Lfunc_begin72:
	.loc	6 1489 0                ## /Library/Developer/CommandLineTools/usr/bin/../include/c++/v1/string:1489:0
	.cfi_startproc
## %bb.0:
	pushq	%rbp
	.cfi_def_cfa_offset 16
	.cfi_offset %rbp, -16
	movq	%rsp, %rbp
	.cfi_def_cfa_register %rbp
	subq	$32, %rsp
	movq	%rdi, -8(%rbp)
	movq	%rsi, -16(%rbp)
	movq	-8(%rbp), %rdi
Ltmp265:
	.loc	6 1489 51 prologue_end  ## /Library/Developer/CommandLineTools/usr/bin/../include/c++/v1/string:1489:51
	movq	-16(%rbp), %rax
	.loc	6 1489 49 is_stmt 0     ## /Library/Developer/CommandLineTools/usr/bin/../include/c++/v1/string:1489:49
	orq	$1, %rax
	movq	%rax, -24(%rbp)         ## 8-byte Spill
	.loc	6 1489 15               ## /Library/Developer/CommandLineTools/usr/bin/../include/c++/v1/string:1489:15
	callq	__ZNSt3__117__compressed_pairINS_12basic_stringIcNS_11char_traitsIcEENS_9allocatorIcEEE5__repES5_E5firstEv
	movq	-24(%rbp), %rcx         ## 8-byte Reload
	.loc	6 1489 35               ## /Library/Developer/CommandLineTools/usr/bin/../include/c++/v1/string:1489:35
	movq	%rcx, (%rax)
	.loc	6 1489 55               ## /Library/Developer/CommandLineTools/usr/bin/../include/c++/v1/string:1489:55
	addq	$32, %rsp
	popq	%rbp
	retq
Ltmp266:
Lfunc_end72:
	.cfi_endproc
                                        ## -- End function
	.p2align	4, 0x90         ## -- Begin function _ZNSt3__112basic_stringIcNS_11char_traitsIcEENS_9allocatorIcEEE16__set_short_sizeEm
__ZNSt3__112basic_stringIcNS_11char_traitsIcEENS_9allocatorIcEEE16__set_short_sizeEm: ## @_ZNSt3__112basic_stringIcNS_11char_traitsIcEENS_9allocatorIcEEE16__set_short_sizeEm
Lfunc_begin73:
	.loc	6 1464 0 is_stmt 1      ## /Library/Developer/CommandLineTools/usr/bin/../include/c++/v1/string:1464:0
	.cfi_startproc
## %bb.0:
	pushq	%rbp
	.cfi_def_cfa_offset 16
	.cfi_offset %rbp, -16
	movq	%rsp, %rbp
	.cfi_def_cfa_register %rbp
	subq	$32, %rsp
	movq	%rdi, -8(%rbp)
	movq	%rsi, -16(%rbp)
	movq	-8(%rbp), %rdi
Ltmp267:
	.loc	6 1464 53 prologue_end  ## /Library/Developer/CommandLineTools/usr/bin/../include/c++/v1/string:1464:53
	movq	-16(%rbp), %rax
	.loc	6 1464 57 is_stmt 0     ## /Library/Developer/CommandLineTools/usr/bin/../include/c++/v1/string:1464:57
	shlq	$1, %rax
                                        ## kill: def $al killed $al killed $rax
	movb	%al, -17(%rbp)          ## 1-byte Spill
	.loc	6 1464 15               ## /Library/Developer/CommandLineTools/usr/bin/../include/c++/v1/string:1464:15
	callq	__ZNSt3__117__compressed_pairINS_12basic_stringIcNS_11char_traitsIcEENS_9allocatorIcEEE5__repES5_E5firstEv
	movb	-17(%rbp), %cl          ## 1-byte Reload
	.loc	6 1464 35               ## /Library/Developer/CommandLineTools/usr/bin/../include/c++/v1/string:1464:35
	movb	%cl, (%rax)
	.loc	6 1464 63               ## /Library/Developer/CommandLineTools/usr/bin/../include/c++/v1/string:1464:63
	addq	$32, %rsp
	popq	%rbp
	retq
Ltmp268:
Lfunc_end73:
	.cfi_endproc
                                        ## -- End function
	.p2align	4, 0x90         ## -- Begin function _ZNSt3__112basic_stringIcNS_11char_traitsIcEENS_9allocatorIcEEE26__invalidate_all_iteratorsEv
__ZNSt3__112basic_stringIcNS_11char_traitsIcEENS_9allocatorIcEEE26__invalidate_all_iteratorsEv: ## @_ZNSt3__112basic_stringIcNS_11char_traitsIcEENS_9allocatorIcEEE26__invalidate_all_iteratorsEv
Lfunc_begin74:
	.loc	6 1684 0 is_stmt 1      ## /Library/Developer/CommandLineTools/usr/bin/../include/c++/v1/string:1684:0
	.cfi_startproc
## %bb.0:
	pushq	%rbp
	.cfi_def_cfa_offset 16
	.cfi_offset %rbp, -16
	movq	%rsp, %rbp
	.cfi_def_cfa_register %rbp
	movq	%rdi, -8(%rbp)
Ltmp269:
	.loc	6 1688 1 prologue_end   ## /Library/Developer/CommandLineTools/usr/bin/../include/c++/v1/string:1688:1
	popq	%rbp
	retq
Ltmp270:
Lfunc_end74:
	.cfi_endproc
                                        ## -- End function
	.globl	__ZNSt3__111char_traitsIcE6assignERcRKc ## -- Begin function _ZNSt3__111char_traitsIcE6assignERcRKc
	.weak_definition	__ZNSt3__111char_traitsIcE6assignERcRKc
	.p2align	4, 0x90
__ZNSt3__111char_traitsIcE6assignERcRKc: ## @_ZNSt3__111char_traitsIcE6assignERcRKc
Lfunc_begin75:
	.loc	11 208 0                ## /Library/Developer/CommandLineTools/usr/bin/../include/c++/v1/__string:208:0
	.cfi_startproc
## %bb.0:
	pushq	%rbp
	.cfi_def_cfa_offset 16
	.cfi_offset %rbp, -16
	movq	%rsp, %rbp
	.cfi_def_cfa_register %rbp
	movq	%rdi, -8(%rbp)
	movq	%rsi, -16(%rbp)
Ltmp271:
	.loc	11 208 75 prologue_end  ## /Library/Developer/CommandLineTools/usr/bin/../include/c++/v1/__string:208:75
	movq	-16(%rbp), %rax
	movb	(%rax), %cl
	.loc	11 208 68 is_stmt 0     ## /Library/Developer/CommandLineTools/usr/bin/../include/c++/v1/__string:208:68
	movq	-8(%rbp), %rax
	.loc	11 208 73               ## /Library/Developer/CommandLineTools/usr/bin/../include/c++/v1/__string:208:73
	movb	%cl, (%rax)
	.loc	11 208 80               ## /Library/Developer/CommandLineTools/usr/bin/../include/c++/v1/__string:208:80
	popq	%rbp
	retq
Ltmp272:
Lfunc_end75:
	.cfi_endproc
                                        ## -- End function
	.p2align	4, 0x90         ## -- Begin function _ZNSt3__112basic_stringIcNS_11char_traitsIcEENS_9allocatorIcEEE15__set_long_sizeEm
__ZNSt3__112basic_stringIcNS_11char_traitsIcEENS_9allocatorIcEEE15__set_long_sizeEm: ## @_ZNSt3__112basic_stringIcNS_11char_traitsIcEENS_9allocatorIcEEE15__set_long_sizeEm
Lfunc_begin76:
	.loc	6 1479 0 is_stmt 1      ## /Library/Developer/CommandLineTools/usr/bin/../include/c++/v1/string:1479:0
	.cfi_startproc
## %bb.0:
	pushq	%rbp
	.cfi_def_cfa_offset 16
	.cfi_offset %rbp, -16
	movq	%rsp, %rbp
	.cfi_def_cfa_register %rbp
	subq	$32, %rsp
	movq	%rdi, -8(%rbp)
	movq	%rsi, -16(%rbp)
	movq	-8(%rbp), %rdi
Ltmp273:
	.loc	6 1479 37 prologue_end  ## /Library/Developer/CommandLineTools/usr/bin/../include/c++/v1/string:1479:37
	movq	-16(%rbp), %rax
	movq	%rax, -24(%rbp)         ## 8-byte Spill
	.loc	6 1479 15 is_stmt 0     ## /Library/Developer/CommandLineTools/usr/bin/../include/c++/v1/string:1479:15
	callq	__ZNSt3__117__compressed_pairINS_12basic_stringIcNS_11char_traitsIcEENS_9allocatorIcEEE5__repES5_E5firstEv
	movq	-24(%rbp), %rcx         ## 8-byte Reload
	.loc	6 1479 35               ## /Library/Developer/CommandLineTools/usr/bin/../include/c++/v1/string:1479:35
	movq	%rcx, 8(%rax)
	.loc	6 1479 41               ## /Library/Developer/CommandLineTools/usr/bin/../include/c++/v1/string:1479:41
	addq	$32, %rsp
	popq	%rbp
	retq
Ltmp274:
Lfunc_end76:
	.cfi_endproc
                                        ## -- End function
	.p2align	4, 0x90         ## -- Begin function _ZNSt3__19allocatorIcE10deallocateEPcm
__ZNSt3__19allocatorIcE10deallocateEPcm: ## @_ZNSt3__19allocatorIcE10deallocateEPcm
Lfunc_begin77:
	.loc	7 1816 0 is_stmt 1      ## /Library/Developer/CommandLineTools/usr/bin/../include/c++/v1/memory:1816:0
	.cfi_startproc
	.cfi_personality 155, ___gxx_personality_v0
	.cfi_lsda 16, Lexception6
## %bb.0:
	pushq	%rbp
	.cfi_def_cfa_offset 16
	.cfi_offset %rbp, -16
	movq	%rsp, %rbp
	.cfi_def_cfa_register %rbp
	subq	$32, %rsp
	movq	%rdi, -8(%rbp)
	movq	%rsi, -16(%rbp)
	movq	%rdx, -24(%rbp)
Ltmp278:
	.loc	7 1816 44 prologue_end  ## /Library/Developer/CommandLineTools/usr/bin/../include/c++/v1/memory:1816:44
	movq	-16(%rbp), %rdi
	.loc	7 1816 49 is_stmt 0     ## /Library/Developer/CommandLineTools/usr/bin/../include/c++/v1/memory:1816:49
	movq	-24(%rbp), %rsi
Ltmp275:
	movl	$1, %edx
	.loc	7 1816 10               ## /Library/Developer/CommandLineTools/usr/bin/../include/c++/v1/memory:1816:10
	callq	__ZNSt3__1L19__libcpp_deallocateEPvmm
Ltmp276:
	jmp	LBB77_1
LBB77_1:
	.loc	7 1816 90               ## /Library/Developer/CommandLineTools/usr/bin/../include/c++/v1/memory:1816:90
	addq	$32, %rsp
	popq	%rbp
	retq
LBB77_2:
Ltmp277:
	.loc	7 1816 10               ## /Library/Developer/CommandLineTools/usr/bin/../include/c++/v1/memory:1816:10
	movq	%rax, %rdi
	movq	%rdx, -32(%rbp)         ## 8-byte Spill
	callq	___clang_call_terminate
Ltmp279:
Lfunc_end77:
	.cfi_endproc
	.section	__TEXT,__gcc_except_tab
	.p2align	2
GCC_except_table77:
Lexception6:
	.byte	255                     ## @LPStart Encoding = omit
	.byte	155                     ## @TType Encoding = indirect pcrel sdata4
	.uleb128 Lttbase3-Lttbaseref3
Lttbaseref3:
	.byte	1                       ## Call site Encoding = uleb128
	.uleb128 Lcst_end6-Lcst_begin6
Lcst_begin6:
	.uleb128 Ltmp275-Lfunc_begin77  ## >> Call Site 1 <<
	.uleb128 Ltmp276-Ltmp275        ##   Call between Ltmp275 and Ltmp276
	.uleb128 Ltmp277-Lfunc_begin77  ##     jumps to Ltmp277
	.byte	1                       ##   On action: 1
Lcst_end6:
	.byte	1                       ## >> Action Record 1 <<
                                        ##   Catch TypeInfo 1
	.byte	0                       ##   No further actions
	.p2align	2
                                        ## >> Catch TypeInfos <<
	.long	0                       ## TypeInfo 1
Lttbase3:
	.p2align	2
                                        ## -- End function
	.section	__TEXT,__text,regular,pure_instructions
	.p2align	4, 0x90         ## -- Begin function _ZNSt3__1L19__libcpp_deallocateEPvmm
__ZNSt3__1L19__libcpp_deallocateEPvmm:  ## @_ZNSt3__1L19__libcpp_deallocateEPvmm
Lfunc_begin78:
	.file	63 "/Library/Developer/CommandLineTools/usr/bin/../include/c++/v1" "new"
	.loc	63 339 0 is_stmt 1      ## /Library/Developer/CommandLineTools/usr/bin/../include/c++/v1/new:339:0
	.cfi_startproc
## %bb.0:
	pushq	%rbp
	.cfi_def_cfa_offset 16
	.cfi_offset %rbp, -16
	movq	%rsp, %rbp
	.cfi_def_cfa_register %rbp
	subq	$32, %rsp
	movq	%rdi, -8(%rbp)
	movq	%rsi, -16(%rbp)
	movq	%rdx, -24(%rbp)
Ltmp280:
	.loc	63 340 56 prologue_end  ## /Library/Developer/CommandLineTools/usr/bin/../include/c++/v1/new:340:56
	movq	-8(%rbp), %rdi
	.loc	63 340 63 is_stmt 0     ## /Library/Developer/CommandLineTools/usr/bin/../include/c++/v1/new:340:63
	movq	-16(%rbp), %rsi
	.loc	63 340 71               ## /Library/Developer/CommandLineTools/usr/bin/../include/c++/v1/new:340:71
	movq	-24(%rbp), %rdx
	.loc	63 340 3                ## /Library/Developer/CommandLineTools/usr/bin/../include/c++/v1/new:340:3
	callq	__ZNSt3__117_DeallocateCaller33__do_deallocate_handle_size_alignEPvmm
	.loc	63 341 1 is_stmt 1      ## /Library/Developer/CommandLineTools/usr/bin/../include/c++/v1/new:341:1
	addq	$32, %rsp
	popq	%rbp
	retq
Ltmp281:
Lfunc_end78:
	.cfi_endproc
                                        ## -- End function
	.p2align	4, 0x90         ## -- Begin function _ZNSt3__117_DeallocateCaller33__do_deallocate_handle_size_alignEPvmm
__ZNSt3__117_DeallocateCaller33__do_deallocate_handle_size_alignEPvmm: ## @_ZNSt3__117_DeallocateCaller33__do_deallocate_handle_size_alignEPvmm
Lfunc_begin79:
	.loc	63 259 0                ## /Library/Developer/CommandLineTools/usr/bin/../include/c++/v1/new:259:0
	.cfi_startproc
## %bb.0:
	pushq	%rbp
	.cfi_def_cfa_offset 16
	.cfi_offset %rbp, -16
	movq	%rsp, %rbp
	.cfi_def_cfa_register %rbp
	subq	$32, %rsp
	movq	%rdi, -8(%rbp)
	movq	%rsi, -16(%rbp)
	movq	%rdx, -24(%rbp)
Ltmp282:
	.loc	63 262 40 prologue_end  ## /Library/Developer/CommandLineTools/usr/bin/../include/c++/v1/new:262:40
	movq	-8(%rbp), %rdi
	.loc	63 262 47 is_stmt 0     ## /Library/Developer/CommandLineTools/usr/bin/../include/c++/v1/new:262:47
	movq	-16(%rbp), %rsi
	.loc	63 262 12               ## /Library/Developer/CommandLineTools/usr/bin/../include/c++/v1/new:262:12
	callq	__ZNSt3__117_DeallocateCaller27__do_deallocate_handle_sizeEPvm
	.loc	63 262 5                ## /Library/Developer/CommandLineTools/usr/bin/../include/c++/v1/new:262:5
	addq	$32, %rsp
	popq	%rbp
	retq
Ltmp283:
Lfunc_end79:
	.cfi_endproc
                                        ## -- End function
	.globl	__ZNSt3__117_DeallocateCaller27__do_deallocate_handle_sizeEPvm ## -- Begin function _ZNSt3__117_DeallocateCaller27__do_deallocate_handle_sizeEPvm
	.weak_definition	__ZNSt3__117_DeallocateCaller27__do_deallocate_handle_sizeEPvm
	.p2align	4, 0x90
__ZNSt3__117_DeallocateCaller27__do_deallocate_handle_sizeEPvm: ## @_ZNSt3__117_DeallocateCaller27__do_deallocate_handle_sizeEPvm
Lfunc_begin80:
	.loc	63 289 0 is_stmt 1      ## /Library/Developer/CommandLineTools/usr/bin/../include/c++/v1/new:289:0
	.cfi_startproc
## %bb.0:
	pushq	%rbp
	.cfi_def_cfa_offset 16
	.cfi_offset %rbp, -16
	movq	%rsp, %rbp
	.cfi_def_cfa_register %rbp
	subq	$16, %rsp
	movq	%rdi, -8(%rbp)
	movq	%rsi, -16(%rbp)
Ltmp284:
	.loc	63 292 22 prologue_end  ## /Library/Developer/CommandLineTools/usr/bin/../include/c++/v1/new:292:22
	movq	-8(%rbp), %rdi
	.loc	63 292 12 is_stmt 0     ## /Library/Developer/CommandLineTools/usr/bin/../include/c++/v1/new:292:12
	callq	__ZNSt3__117_DeallocateCaller9__do_callEPv
	.loc	63 292 5                ## /Library/Developer/CommandLineTools/usr/bin/../include/c++/v1/new:292:5
	addq	$16, %rsp
	popq	%rbp
	retq
Ltmp285:
Lfunc_end80:
	.cfi_endproc
                                        ## -- End function
	.globl	__ZNSt3__117_DeallocateCaller9__do_callEPv ## -- Begin function _ZNSt3__117_DeallocateCaller9__do_callEPv
	.weak_definition	__ZNSt3__117_DeallocateCaller9__do_callEPv
	.p2align	4, 0x90
__ZNSt3__117_DeallocateCaller9__do_callEPv: ## @_ZNSt3__117_DeallocateCaller9__do_callEPv
Lfunc_begin81:
	.loc	63 330 0 is_stmt 1      ## /Library/Developer/CommandLineTools/usr/bin/../include/c++/v1/new:330:0
	.cfi_startproc
## %bb.0:
	pushq	%rbp
	.cfi_def_cfa_offset 16
	.cfi_offset %rbp, -16
	movq	%rsp, %rbp
	.cfi_def_cfa_register %rbp
	subq	$16, %rsp
	movq	%rdi, -8(%rbp)
Ltmp286:
	.loc	63 334 38 prologue_end  ## /Library/Developer/CommandLineTools/usr/bin/../include/c++/v1/new:334:38
	movq	-8(%rbp), %rdi
	.loc	63 334 12 is_stmt 0     ## /Library/Developer/CommandLineTools/usr/bin/../include/c++/v1/new:334:12
	callq	__ZdlPv
	.loc	63 334 5                ## /Library/Developer/CommandLineTools/usr/bin/../include/c++/v1/new:334:5
	addq	$16, %rsp
	popq	%rbp
	retq
Ltmp287:
Lfunc_end81:
	.cfi_endproc
                                        ## -- End function
	.p2align	4, 0x90         ## -- Begin function _ZNSt3__117__compressed_pairINS_12basic_stringIcNS_11char_traitsIcEENS_9allocatorIcEEE5__repES5_E6secondEv
__ZNSt3__117__compressed_pairINS_12basic_stringIcNS_11char_traitsIcEENS_9allocatorIcEEE5__repES5_E6secondEv: ## @_ZNSt3__117__compressed_pairINS_12basic_stringIcNS_11char_traitsIcEENS_9allocatorIcEEE5__repES5_E6secondEv
Lfunc_begin82:
	.loc	7 2288 0 is_stmt 1      ## /Library/Developer/CommandLineTools/usr/bin/../include/c++/v1/memory:2288:0
	.cfi_startproc
## %bb.0:
	pushq	%rbp
	.cfi_def_cfa_offset 16
	.cfi_offset %rbp, -16
	movq	%rsp, %rbp
	.cfi_def_cfa_register %rbp
	subq	$16, %rsp
	movq	%rdi, -8(%rbp)
	movq	-8(%rbp), %rax
Ltmp288:
	.loc	7 2289 40 prologue_end  ## /Library/Developer/CommandLineTools/usr/bin/../include/c++/v1/memory:2289:40
	movq	%rax, %rdi
	callq	__ZNSt3__122__compressed_pair_elemINS_9allocatorIcEELi1ELb1EE5__getEv
	.loc	7 2289 5 is_stmt 0      ## /Library/Developer/CommandLineTools/usr/bin/../include/c++/v1/memory:2289:5
	addq	$16, %rsp
	popq	%rbp
	retq
Ltmp289:
Lfunc_end82:
	.cfi_endproc
                                        ## -- End function
	.p2align	4, 0x90         ## -- Begin function _ZNSt3__122__compressed_pair_elemINS_9allocatorIcEELi1ELb1EE5__getEv
__ZNSt3__122__compressed_pair_elemINS_9allocatorIcEELi1ELb1EE5__getEv: ## @_ZNSt3__122__compressed_pair_elemINS_9allocatorIcEELi1ELb1EE5__getEv
Lfunc_begin83:
	.loc	7 2201 0 is_stmt 1      ## /Library/Developer/CommandLineTools/usr/bin/../include/c++/v1/memory:2201:0
	.cfi_startproc
## %bb.0:
	pushq	%rbp
	.cfi_def_cfa_offset 16
	.cfi_offset %rbp, -16
	movq	%rsp, %rbp
	.cfi_def_cfa_register %rbp
	movq	%rdi, -8(%rbp)
	movq	-8(%rbp), %rax
Ltmp290:
	.loc	7 2201 59 prologue_end  ## /Library/Developer/CommandLineTools/usr/bin/../include/c++/v1/memory:2201:59
	popq	%rbp
	retq
Ltmp291:
Lfunc_end83:
	.cfi_endproc
                                        ## -- End function
	.p2align	4, 0x90         ## -- Begin function _ZNKSt3__112basic_stringIcNS_11char_traitsIcEENS_9allocatorIcEEE14__get_long_capEv
__ZNKSt3__112basic_stringIcNS_11char_traitsIcEENS_9allocatorIcEEE14__get_long_capEv: ## @_ZNKSt3__112basic_stringIcNS_11char_traitsIcEENS_9allocatorIcEEE14__get_long_capEv
Lfunc_begin84:
	.loc	6 1492 0                ## /Library/Developer/CommandLineTools/usr/bin/../include/c++/v1/string:1492:0
	.cfi_startproc
## %bb.0:
	pushq	%rbp
	.cfi_def_cfa_offset 16
	.cfi_offset %rbp, -16
	movq	%rsp, %rbp
	.cfi_def_cfa_register %rbp
	subq	$16, %rsp
	movq	%rdi, -8(%rbp)
	movq	-8(%rbp), %rdi
Ltmp292:
	.loc	6 1492 22 prologue_end  ## /Library/Developer/CommandLineTools/usr/bin/../include/c++/v1/string:1492:22
	callq	__ZNKSt3__117__compressed_pairINS_12basic_stringIcNS_11char_traitsIcEENS_9allocatorIcEEE5__repES5_E5firstEv
	.loc	6 1492 34 is_stmt 0     ## /Library/Developer/CommandLineTools/usr/bin/../include/c++/v1/string:1492:34
	movq	(%rax), %rax
	.loc	6 1492 41               ## /Library/Developer/CommandLineTools/usr/bin/../include/c++/v1/string:1492:41
	andq	$-2, %rax
	.loc	6 1492 10               ## /Library/Developer/CommandLineTools/usr/bin/../include/c++/v1/string:1492:10
	addq	$16, %rsp
	popq	%rbp
	retq
Ltmp293:
Lfunc_end84:
	.cfi_endproc
                                        ## -- End function
	.p2align	4, 0x90         ## -- Begin function _ZNSt3__112basic_stringIcNS_11char_traitsIcEENS_9allocatorIcEEE19__move_assign_allocERS5_NS_17integral_constantIbLb1EEE
__ZNSt3__112basic_stringIcNS_11char_traitsIcEENS_9allocatorIcEEE19__move_assign_allocERS5_NS_17integral_constantIbLb1EEE: ## @_ZNSt3__112basic_stringIcNS_11char_traitsIcEENS_9allocatorIcEEE19__move_assign_allocERS5_NS_17integral_constantIbLb1EEE
Lfunc_begin85:
	.loc	6 1632 0 is_stmt 1      ## /Library/Developer/CommandLineTools/usr/bin/../include/c++/v1/string:1632:0
	.cfi_startproc
## %bb.0:
	pushq	%rbp
	.cfi_def_cfa_offset 16
	.cfi_offset %rbp, -16
	movq	%rsp, %rbp
	.cfi_def_cfa_register %rbp
	subq	$48, %rsp
	movq	%rdi, -16(%rbp)
	movq	%rsi, -24(%rbp)
	movq	-16(%rbp), %rdi
Ltmp294:
	.loc	6 1633 37 prologue_end  ## /Library/Developer/CommandLineTools/usr/bin/../include/c++/v1/string:1633:37
	movq	-24(%rbp), %rax
	movq	%rdi, -32(%rbp)         ## 8-byte Spill
	.loc	6 1633 41 is_stmt 0     ## /Library/Developer/CommandLineTools/usr/bin/../include/c++/v1/string:1633:41
	movq	%rax, %rdi
	callq	__ZNSt3__112basic_stringIcNS_11char_traitsIcEENS_9allocatorIcEEE7__allocEv
	.loc	6 1633 25               ## /Library/Developer/CommandLineTools/usr/bin/../include/c++/v1/string:1633:25
	movq	%rax, %rdi
	callq	__ZNSt3__1L4moveIRNS_9allocatorIcEEEEONS_16remove_referenceIT_E4typeEOS5_
	movq	-32(%rbp), %rdi         ## 8-byte Reload
	movq	%rax, -40(%rbp)         ## 8-byte Spill
	.loc	6 1633 13               ## /Library/Developer/CommandLineTools/usr/bin/../include/c++/v1/string:1633:13
	callq	__ZNSt3__112basic_stringIcNS_11char_traitsIcEENS_9allocatorIcEEE7__allocEv
	.loc	6 1634 9 is_stmt 1      ## /Library/Developer/CommandLineTools/usr/bin/../include/c++/v1/string:1634:9
	addq	$48, %rsp
	popq	%rbp
	retq
Ltmp295:
Lfunc_end85:
	.cfi_endproc
                                        ## -- End function
	.p2align	4, 0x90         ## -- Begin function _ZNSt3__1L4moveIRNS_9allocatorIcEEEEONS_16remove_referenceIT_E4typeEOS5_
__ZNSt3__1L4moveIRNS_9allocatorIcEEEEONS_16remove_referenceIT_E4typeEOS5_: ## @_ZNSt3__1L4moveIRNS_9allocatorIcEEEEONS_16remove_referenceIT_E4typeEOS5_
Lfunc_begin86:
	.loc	8 2351 0                ## /Library/Developer/CommandLineTools/usr/bin/../include/c++/v1/type_traits:2351:0
	.cfi_startproc
## %bb.0:
	pushq	%rbp
	.cfi_def_cfa_offset 16
	.cfi_offset %rbp, -16
	movq	%rsp, %rbp
	.cfi_def_cfa_register %rbp
	movq	%rdi, -8(%rbp)
Ltmp296:
	.loc	8 2353 31 prologue_end  ## /Library/Developer/CommandLineTools/usr/bin/../include/c++/v1/type_traits:2353:31
	movq	-8(%rbp), %rax
	.loc	8 2353 5 is_stmt 0      ## /Library/Developer/CommandLineTools/usr/bin/../include/c++/v1/type_traits:2353:5
	popq	%rbp
	retq
Ltmp297:
Lfunc_end86:
	.cfi_endproc
                                        ## -- End function
	.file	64 "<stdin>"